68K GAS  src/megadrive/pcm4.68k 			page 1


   1               	*
   2               	* Mega Drive sound: SGDK PCM4 Z80 driver (4ch 8-bit PCM @ 16kHz) + Xevious
   3               	* sound dispatch. Replicates the NeoGeo priority/timer logic but drives the
   4               	* PCM4 channels instead of a single sound-chip command.
   5               	*
   6               	
   7               	    .include "vdpregs.inc"
   1               	*
   2               	* Mega Drive hardware definitions for Xevious port
   3               	*
   4               	
   5               	* 68K memory map
   6               	    .equ    ROM_BASE,       0x000000
   7               	    .equ    SRAM_BASE,      0x200001            | odd bytes
   8               	    .equ    SRAM_END,       0x2003FF
   9               	    .equ    Z80_RAM,        0xA00000
  10               	    .equ    Z80_BUSREQ,     0xA11100
  11               	    .equ    Z80_RESET,      0xA11200
  12               	    .equ    IO_VERSION,     0xA10001
  13               	    .equ    IO_DATA1,       0xA10003
  14               	    .equ    IO_DATA2,       0xA10005
  15               	    .equ    IO_CTRL1,       0xA10009
  16               	    .equ    IO_CTRL2,       0xA1000B
  17               	    .equ    TMSS_REG,       0xA14000
  18               	    .equ    SRAM_CTRL,      0xA130F1
  19               	    .equ    RAM_BASE,       0xFF0000
  20               	
  21               	* VDP ports
  22               	    .equ    VDP_DATA,       0xC00000
  23               	    .equ    VDP_CTRL,       0xC00004
  24               	    .equ    VDP_HV,         0xC00008
  25               	    .equ    PSG_PORT,       0xC00011
  26               	
  27               	* VRAM layout
  28               	* tile patterns: 0x0000-0x9FFF (tile 0 = blank)
  29               	*   bg game patterns   from 0x0020 (generated, see graphics_md.68k)
  30               	*   sprite pool        after bg    (generated bound; panel glyphs + fg
  31               	*                      overflow live at the pool tail)
  32               	* fg dynamic cache: 96 tiles at 0xB000-0xBBFF (tiles 1408-1503)
  33               	    .equ    VRAM_WINDOW_NT, 0xA000              | 64x32 window nametable (4KB)
  34               	    .equ    VRAM_SAT,       0xBC00              | sprite attribute table (640B)
  35               	    .equ    VRAM_HSCROLL,   0xBF00              | hscroll table
  36               	    .equ    VRAM_PLANE_A,   0xC000              | 64x64 nametable (8KB)
  37               	    .equ    VRAM_PLANE_B,   0xE000              | 64x64 nametable (8KB)
  38               	
  39               	* VDP register values
  40               	* NOTE: '|' is the comment char in MIT syntax: use '+' in expressions!
  41               	    .equ    VDPR00, 0x8004                      | mode 1: no hint, normal ops
  42               	    .equ    VDPR01_OFF, 0x8134                  | mode 2: display off, vint, dma, V28, mode5
  43               	    .equ    VDPR01_ON,  0x8174                  | mode 2: display on
  44               	    .equ    VDPR02, 0x8200+(VRAM_PLANE_A>>10)   | plane A nametable
  45               	    .equ    VDPR03, 0x8300+(VRAM_WINDOW_NT>>10) | window nametable
  46               	    .equ    VDPR04, 0x8400+(VRAM_PLANE_B>>13)   | plane B nametable
  47               	    .equ    VDPR05, 0x8500+(VRAM_SAT>>9)        | sprite attribute table
  48               	    .equ    VDPR06, 0x8600
  49               	    .equ    VDPR07, 0x8700                      | backdrop colour = pal0 idx0
  50               	    .equ    VDPR08, 0x8800
68K GAS  src/megadrive/pcm4.68k 			page 2


  51               	    .equ    VDPR09, 0x8900
  52               	    .equ    VDPR10, 0x8AFF                      | hint counter
  53               	    .equ    VDPR11, 0x8B00                      | full-screen scroll
  54               	    .equ    VDPR12, 0x8C81                      | H40, no shadow/hilite, no interlace
  55               	    .equ    VDPR13, 0x8D00+(VRAM_HSCROLL>>10)   | hscroll table
  56               	    .equ    VDPR14, 0x8E00
  57               	    .equ    VDPR15, 0x8F02                      | autoincrement 2
  58               	    .equ    VDPR16, 0x9011                      | plane size 64x64
  59               	    .equ    VDPR17, 0x9191                      | window: right side, x>=272 (17*16)
  60               	    .equ    VDPR18, 0x9200                      | window Y: full height
  61               	
  62               	* VDP command address macros (control port longword formats)
  63               	* vram write:  0x40000000 + (a&0x3FFF)<<16 + (a&0xC000)>>14
  64               	* cram write:  0xC0000000 + ...
  65               	* vsram write: 0x40000010 + ...
  66               	
  67               	    .macro  VDP_W_VRAM   addr
  68               	    move.l  #0x40000000+((\addr&0x3FFF)<<16)+((\addr)>>14),(VDP_CTRL)
  69               	    .endm
  70               	
  71               	    .macro  VDP_W_CRAM   addr
  72               	    move.l  #0xC0000000+((\addr&0x3FFF)<<16)+((\addr)>>14),(VDP_CTRL)
  73               	    .endm
  74               	
  75               	    .macro  VDP_W_VSRAM  addr
  76               	    move.l  #0x40000010+((\addr&0x3FFF)<<16)+((\addr)>>14),(VDP_CTRL)
  77               	    .endm
   8               	    .include "xevious.inc"
   1               	
   2               	* xevious.inc
   3               	
   4               	***    
   5               	*** BUILD OPTIONS
   6               	***
   7               		.ifdef	RELEASE
   8               	    * hardware options
   9               	    OPT_DISABLE_FG_LAYER=0              | don't change values here!
  10               	    OPT_DISABLE_BG_LAYER=0              | don't change values here!
  11               	    OPT_DISABLE_SPRITES=0               | don't change values here!
  12               	    OPT_DISABLE_DISPLAY_MASKS=0         | don't change values here!
  13               											| don't change values here!
  14               	    * optimisation options              | don't change values here!
  15               	    OPT_SUB_HAS_IRQ=1                   | don't change values here!
  16               	    * game test options                 | don't change values here!
  17               	    OPT_START_AREA=1    | 1-16          | don't change values here!
  18               	    OPT_LOOP_AREA=0                     | don't change values here!
  19               	    OPT_INVINCIBLE=0                    | don't change values here!
  20               	    OPT_INFINITE_LIVES=0                | don't change values here!
  21               	    * score is BCD format               | don't change values here!
  22               	    OPT_START_SCORE=0x0000000           | don't change values here!
  23               	    OPT_ENABLE_HIGH_SCORE_IO=1          | don't change values here!
  24               	    OPT_TCDEV_EASTER_EGG=1              | don't change values here!
  25               	    OPT_REVEAL_SOL_TOWER=0              | don't change values here!
  26               	    OPT_REVEAL_BONUS_FLAG=0             | don't change values here!
  27               	    OPT_DISPLAY_AREA=0                  | don't change values here!
  28               	    OPT_SKIP_SPLASH=0                   | don't change values here!
  29               	    OPT_SKIP_ATTRACT=0                  | don't change values here!
68K GAS  src/megadrive/pcm4.68k 			page 3


  30               		.else
  31               		* dev/debug mode: changes here won't reflect on release version!
  32               	    * hardware options
  33               	    OPT_DISABLE_FG_LAYER=0
  34               	    OPT_DISABLE_BG_LAYER=0
  35               	    OPT_DISABLE_SPRITES=0
  36               	    OPT_DISABLE_DISPLAY_MASKS=0
  37               	
  38               	    * optimisation options
  39               	    OPT_SUB_HAS_IRQ=1
  40               	    * game test options    
  41               	    OPT_START_AREA=1    | 1-16
  42               	    OPT_LOOP_AREA=0
  43               	    OPT_INVINCIBLE=0
  44               	    OPT_INFINITE_LIVES=0
  45               	    * score is BCD format
  46               	    OPT_START_SCORE=0x0000000
  47               	    OPT_ENABLE_HIGH_SCORE_IO=1
  48               	    OPT_TCDEV_EASTER_EGG=1
  49               	    OPT_REVEAL_SOL_TOWER=0
  50               	    OPT_REVEAL_BONUS_FLAG=0
  51               	    OPT_DISPLAY_AREA=0
  52               	    OPT_SKIP_SPLASH=0
  53               	    OPT_SKIP_ATTRACT=0
  54               		.endif
  55               	
  56               	* Mega Drive debug autoplay: start a real game immediately, no death,
  57               	* so unattended runs exercise gameplay/area-transition code paths
  58               		.ifdef	MD_AUTOPLAY
  59               		.set	OPT_SKIP_ATTRACT, 1
  60               		.endif
  61               		.ifdef	MD_INVINCIBLE
  62               		.set	OPT_INVINCIBLE, 1
  63               		.endif
  64               	
  65               	***
  66               	*** end of BUILD OPTIONS
  67               	***
  68               	
  69               	* offsets into object table
  70               	    .equ  _STATE,     0
  71               	    .equ  _ATTR,      1
  72               	    .equ  _EXTRA,     4
  73               	    .equ  _X,         8
  74               	    .equ  _dX,        10
  75               	    .equ  _ddX,       12
  76               	    .equ  _Y,         14
  77               	    .equ  _dY,        16
  78               	    .equ  _ddY,       18
  79               	    .equ  _CODE,      20
  80               	    .equ  _COLOUR,    21
  81               	    .equ  _PTS,       22
  82               	    .equ  _TIMER,     24
  83               	    .equ  _TIMER1,    25
  84               	      .equ  _NVEC,    25
  85               	    .equ  _TIMER2,    26
  86               	      .equ  _VECLEN,  26
68K GAS  src/megadrive/pcm4.68k 			page 4


  87               	    .equ  _FFREQ,     28
  88               	    .equ  _TYPE,      30
  89               	
  90               	    .equ  _OBJSIZE,   32
  91               	
  92               	* video functions
  93               	    .equ  BANK_FG_COLORRAM,   (0<<2)
  94               	    .equ  BANK_BG_COLORRAM,   (1<<2)
  95               	    .equ  BANK_FG_VIDEORAM,   (2<<2)
  96               	    .equ  BANK_BG_VIDEORAM,   (3<<2)
  97               	
  98               	* sound ordinals
  99               	
 100               	    .equ  MAIN_THEME_SND,         0x01
 101               	    .equ  HIGHEST_SCORE_SND,      0x02
 102               	    .equ  HIGH_SCORE_SND,         0x03
 103               	    .equ  EXTRA_SOLVALOU_SND,     0x04
 104               	    .equ  FLYING_ENEMY_HIT_SND,   0x05
 105               	    .equ  GARU_ZAKATO_SND,        0x06
 106               	    .equ  ANDOR_GENESIS_SND,      0x07
 107               	    .equ  SHEONITE_SND,           0x08
 108               	    .equ  TELEPORT_SND,           0x09
 109               	    .equ  BACURA_HIT_SND,         0x0a
 110               	    .equ  SHOT_SND,               0x0b
 111               	    .equ  BOMB_SND,               0x0c
 112               	    .equ  BONUS_FLAG_SND,         0x0d
 113               	    .equ  SOLVALOU_SND,           0x0e
 114               	    * 60XX (noise chip?)
 115               	    .equ  COIN_SND,               0x10
 116               	    .equ  GROUND_EXPLOSION_SND,   0x11
 117               	    .equ  SOLVALOU_EXPLOSION_SND, 0x12
 118               	    
 119               	
 120               	
   9               	
  10               	    .global md_sound_init
  11               	    .global osd_sound_start
  12               	    .global osd_sound_stop
  13               	    .global osd_sound_mute
  14               	    .global osd_sound_unmute
  15               	
  16               	* Z80 driver RAM layout (offsets from Z80_RAM = 0xA00000)
  17               	    .equ    Z80_COMMAND,    0x0100              | byte: bit ch = start play
  18               	    .equ    Z80_STATUS,     0x0102              | byte0 play/ready, byte1 loop
  19               	    .equ    Z80_WAVADR,     0x0104              | + ch*4 : adr8-15, adr16-23, len8-15, len16-23
  20               	    .equ    Z80_IWAVADR,    0x0114              | + ch*4 : internal copy (stop writes here)
  21               	    .equ    Z80_WAVVOL,     0x0124              | + ch : volume 0-15
  22               	    .equ    Z80_NULLADR,    0x0128              | null sample adr bits8-23
  23               	    .equ    Z80_NULLLEN,    0x012A
  24               	
  25               	    .text
  26               	
  27               	***************************************************************
  28               	*** driver upload (Z80 already parked by startup: bus held)
  29               	***************************************************************
  30               	
  31               	md_sound_init:
68K GAS  src/megadrive/pcm4.68k 			page 5


  32 0000 48E7 80C0 	    movem.l d0/a0-a1,-(a7)
  33               	* copy the PCM4 driver to Z80 RAM 0x0000
  34 0004 41F9 0000 	    lea     pcm_driver,a0
  34      0000 
  35 000a 43F9 00A0 	    lea     (Z80_RAM),a1
  35      0000 
  36 0010 303C 0A6C 	    move.w  #pcm_driver_end-pcm_driver-1,d0
  37 0014 12D8      	1:  move.b  (a0)+,(a1)+
  38 0016 51C8 FFFC 	    dbf     d0,1b
  39               	* copy the 4KB volume table to Z80 RAM 0x1000
  40 001a 41F9 0000 	    lea     pcm_tab_vol,a0
  40      0000 
  41 0020 43F9 00A0 	    lea     (Z80_RAM+0x1000),a1
  41      1000 
  42 0026 303C 0FFF 	    move.w  #0x1000-1,d0
  43 002a 12D8      	2:  move.b  (a0)+,(a1)+
  44 002c 51C8 FFFC 	    dbf     d0,2b
  45               	* null-sample parameters (silence source, 256 bytes)
  46 0030 43F9 00A0 	    lea     (Z80_RAM),a1
  46      0000 
  47 0036 203C 0000 	    move.l  #pcm_smp_null,d0
  47      0000 
  48 003c E088      	    lsr.l   #8,d0
  49 003e 1340 0128 	    move.b  d0,(Z80_NULLADR,a1)
  50 0042 E088      	    lsr.l   #8,d0
  51 0044 1340 0129 	    move.b  d0,(Z80_NULLADR+1,a1)
  52 0048 137C 0001 	    move.b  #1,(Z80_NULLLEN,a1)                 | 256>>8
  52      012A 
  53 004e 137C 0000 	    move.b  #0,(Z80_NULLLEN+1,a1)
  53      012B 
  54 0054 137C 0000 	    move.b  #0,(Z80_COMMAND,a1)
  54      0100 
  55               	* clear volumes
  56 005a 41E9 0124 	    lea     (Z80_WAVVOL,a1),a0
  57 005e 10FC 0000 	    move.b  #0,(a0)+
  58 0062 10FC 0000 	    move.b  #0,(a0)+
  59 0066 10FC 0000 	    move.b  #0,(a0)+
  60 006a 10FC 0000 	    move.b  #0,(a0)+
  61               	* start the Z80: assert reset, release bus, release reset
  62 006e 33FC 0000 	    move.w  #0x000,(Z80_RESET)
  62      00A1 1200 
  63 0076 7028      	    moveq   #40,d0
  64 0078 51C8 FFFE 	3:  dbf     d0,3b
  65 007c 33FC 0000 	    move.w  #0x000,(Z80_BUSREQ)
  65      00A1 1100 
  66 0084 33FC 0100 	    move.w  #0x100,(Z80_RESET)
  66      00A1 1200 
  67 008c 4239 0000 	    clr.b   (md_snd_muted)
  67      0000 
  68 0092 4CDF 0301 	    movem.l (a7)+,d0/a0-a1
  69 0096 4E75      	    rts
  70               	
  71               	***************************************************************
  72               	*** Z80 bus helpers
  73               	***************************************************************
  74               	
  75               	md_z80_request:
68K GAS  src/megadrive/pcm4.68k 			page 6


  76 0098 33FC 0100 	    move.w  #0x100,(Z80_BUSREQ)
  76      00A1 1100 
  77 00a0 0839 0000 	1:  btst    #0,(Z80_BUSREQ)
  77      00A1 1100 
  78 00a8 66F6      	    bne.b   1b
  79 00aa 4E75      	    rts
  80               	
  81               	md_z80_release:
  82 00ac 33FC 0000 	    move.w  #0x000,(Z80_BUSREQ)
  82      00A1 1100 
  83 00b4 4E75      	    rts
  84               	
  85               	***************************************************************
  86               	*** PCM channel control
  87               	***************************************************************
  88               	
  89               	* d0 = sound ordinal -> start its sample on its channel
  90               	md_pcm_play:
  91 00b6 48E7 FEC0 	    movem.l d0-d6/a0-a1,-(a7)
  92 00ba 41F9 0000 	    lea     md_sound_table,a0
  92      0000 
  93 00c0 3C00      	    move.w  d0,d6
  94 00c2 E74E      	    lsl.w   #3,d6                               | 8 bytes/entry
  95 00c4 41F0 6000 	    lea     (a0,d6.w),a0
  96 00c8 2210      	    move.l  (a0),d1                             | sample address
  97 00ca 6700 0078 	    beq     9f                                  | unused ordinal -> ignore
  98 00ce 3428 0004 	    move.w  (4,a0),d2                           | length >> 8
  99 00d2 7600      	    moveq   #0,d3
 100 00d4 1628 0006 	    move.b  (6,a0),d3                           | channel (0-3)
 101 00d8 7800      	    moveq   #0,d4
 102 00da 1828 0007 	    move.b  (7,a0),d4                           | vol<<4 | loop
 103 00de 6100 FFB8 	    bsr     md_z80_request
 104 00e2 43F9 00A0 	    lea     (Z80_RAM),a1
 104      0000 
 105 00e8 3C03      	    move.w  d3,d6
 106 00ea E54E      	    lsl.w   #2,d6                               | ch*4
 107 00ec 0646 0104 	    addi.w  #Z80_WAVADR,d6
 108               	* WAVADR[ch] (8-bit indexed disp can't reach 0x104, so fold into the index)
 109 00f0 41F1 6000 	    lea     (a1,d6.w),a0
 110 00f4 2001      	    move.l  d1,d0
 111 00f6 E088      	    lsr.l   #8,d0
 112 00f8 1080      	    move.b  d0,(0,a0)                           | adr bits 8-15
 113 00fa E088      	    lsr.l   #8,d0
 114 00fc 1140 0001 	    move.b  d0,(1,a0)                           | adr bits 16-23
 115 0100 1142 0002 	    move.b  d2,(2,a0)                           | len bits 8-15
 116 0104 3002      	    move.w  d2,d0
 117 0106 E048      	    lsr.w   #8,d0
 118 0108 1140 0003 	    move.b  d0,(3,a0)                           | len bits 16-23
 119               	* volume (force 0 while muted)
 120 010c 3004      	    move.w  d4,d0
 121 010e E848      	    lsr.w   #4,d0                               | volume 0-15
 122 0110 4A39 0000 	    tst.b   (md_snd_muted)
 122      0000 
 123 0116 6702      	    beq.b   1f
 124 0118 7000      	    moveq   #0,d0
 125 011a 3C03      	1:  move.w  d3,d6
 126 011c 0646 0124 	    addi.w  #Z80_WAVVOL,d6
68K GAS  src/megadrive/pcm4.68k 			page 7


 127 0120 1380 6000 	    move.b  d0,(0,a1,d6.w)
 128               	* loop flag in STATUS byte 1
 129 0124 1029 0103 	    move.b  (Z80_STATUS+1,a1),d0
 130 0128 0780      	    bclr    d3,d0
 131 012a 0804 0000 	    btst    #0,d4                               | loop?
 132 012e 6702      	    beq.b   2f
 133 0130 07C0      	    bset    d3,d0
 134 0132 1340 0103 	2:  move.b  d0,(Z80_STATUS+1,a1)
 135               	* play command
 136 0136 1029 0100 	    move.b  (Z80_COMMAND,a1),d0
 137 013a 07C0      	    bset    d3,d0
 138 013c 1340 0100 	    move.b  d0,(Z80_COMMAND,a1)
 139 0140 6100 FF6A 	    bsr     md_z80_release
 140 0144 4CDF 037F 	9:  movem.l (a7)+,d0-d6/a0-a1
 141 0148 4E75      	    rts
 142               	
 143               	* d0 = sound ordinal -> stop its channel
 144               	md_pcm_stop:
 145 014a 48E7 F0C0 	    movem.l d0-d3/a0-a1,-(a7)
 146 014e 41F9 0000 	    lea     md_sound_table,a0
 146      0000 
 147 0154 3200      	    move.w  d0,d1
 148 0156 E749      	    lsl.w   #3,d1
 149 0158 1630 1006 	    move.b  (6,a0,d1.w),d3                      | channel
 150 015c 6100 FF3A 	    bsr     md_z80_request
 151 0160 43F9 00A0 	    lea     (Z80_RAM),a1
 151      0000 
 152 0166 3203      	    move.w  d3,d1
 153 0168 E549      	    lsl.w   #2,d1                               | ch*4
 154 016a 0641 0114 	    addi.w  #Z80_IWAVADR,d1
 155               	* point internal sample at the null sample
 156 016e 41F1 1000 	    lea     (a1,d1.w),a0
 157 0172 10A9 0128 	    move.b  (Z80_NULLADR,a1),(0,a0)
 158 0176 1169 0129 	    move.b  (Z80_NULLADR+1,a1),(1,a0)
 158      0001 
 159 017c 1169 012A 	    move.b  (Z80_NULLLEN,a1),(2,a0)
 159      0002 
 160 0182 1169 012B 	    move.b  (Z80_NULLLEN+1,a1),(3,a0)
 160      0003 
 161               	* clear play + loop status
 162 0188 1029 0102 	    move.b  (Z80_STATUS,a1),d0
 163 018c 0780      	    bclr    d3,d0
 164 018e 1340 0102 	    move.b  d0,(Z80_STATUS,a1)
 165 0192 1029 0103 	    move.b  (Z80_STATUS+1,a1),d0
 166 0196 0780      	    bclr    d3,d0
 167 0198 1340 0103 	    move.b  d0,(Z80_STATUS+1,a1)
 168 019c 6100 FF0E 	    bsr     md_z80_release
 169 01a0 4CDF 030F 	    movem.l (a7)+,d0-d3/a0-a1
 170 01a4 4E75      	    rts
 171               	
 172               	***************************************************************
 173               	*** OSD sound dispatch (NeoGeo priority/timer logic)
 174               	***************************************************************
 175               	
 176               	* d0 = sound ordinal
 177               	osd_sound_start:
 178 01a6 48E7 8080 	    movem.l d0/a0,-(a7)
68K GAS  src/megadrive/pcm4.68k 			page 8


 179 01aa 41F9 0000 	    lea     md_snd_playing,a0
 179      0000 
 180 01b0 4A28 0001 	    tst.b   (MAIN_THEME_SND,a0)                 | main theme playing?
 181 01b4 6700 0024 	    beq     0f
 182 01b8 0C00 000E 	    cmp.b   #SOLVALOU_SND,d0                    | only solvalou ticks its timer
 183 01bc 6600 0098 	    bne     9f
 184 01c0 5379 0000 	    subq.w  #1,(md_main_theme_cnt)
 184      0000 
 185 01c6 6600 008E 	    bne     9f
 186 01ca 4228 0001 	    clr.b   (MAIN_THEME_SND,a0)
 187 01ce 7001      	    moveq   #MAIN_THEME_SND,d0
 188 01d0 6100 FF78 	    bsr     md_pcm_stop
 189 01d4 700E      	    moveq   #SOLVALOU_SND,d0
 190 01d6 6000 006E 	    bra     snd_flag_and_play
 191 01da 4A28 0007 	0:  tst.b   (ANDOR_GENESIS_SND,a0)              | andor genesis playing?
 192 01de 6700 001E 	    beq     1f
 193 01e2 0C00 000E 	    cmp.b   #SOLVALOU_SND,d0
 194 01e6 6600 0032 	    bne     3f
 195 01ea 5379 0000 	    subq.w  #1,(md_andor_cnt)
 195      0000 
 196 01f0 6600 0064 	    bne     9f
 197 01f4 4228 0007 	    clr.b   (ANDOR_GENESIS_SND,a0)
 198 01f8 700E      	    moveq   #SOLVALOU_SND,d0
 199 01fa 6000 004A 	    bra     snd_flag_and_play
 200 01fe 0C00 0001 	1:  cmp.b   #MAIN_THEME_SND,d0
 201 0202 6600 000E 	    bne     2f
 202 0206 33FC 017C 	    move.w  #380,(md_main_theme_cnt)
 202      0000 0000 
 203 020e 6000 0036 	    bra     snd_flag_and_play
 204 0212 0C00 0003 	2:  cmp.b   #HIGH_SCORE_SND,d0                  | HIGHEST/HIGH_SCORE
 205 0216 6F00 001E 	    ble     snd_check_playing
 206 021a 0C00 0007 	3:  cmp.b   #ANDOR_GENESIS_SND,d0
 207 021e 6600 000E 	    bne     4f
 208 0222 33FC 0004 	    move.w  #4,(md_andor_cnt)
 208      0000 0000 
 209 022a 6000 000A 	    bra     snd_check_playing
 210 022e 0C00 000E 	4:  cmp.b   #SOLVALOU_SND,d0
 211 0232 6600 0012 	    bne     snd_flag_and_play
 212               	snd_check_playing:
 213 0236 3040      	    move.w  d0,a0                               | scratch index
 214 0238 41F9 0000 	    lea     md_snd_playing,a0
 214      0000 
 215 023e 4A30 0000 	    tst.b   (a0,d0.w)
 216 0242 6600 0012 	    bne     9f                                  | already playing
 217               	snd_flag_and_play:
 218 0246 41F9 0000 	    lea     md_snd_playing,a0
 218      0000 
 219 024c 11BC 0001 	    move.b  #1,(a0,d0.w)
 219      0000 
 220 0252 6100 FE62 	    bsr     md_pcm_play
 221 0256 4CDF 0101 	9:  movem.l (a7)+,d0/a0
 222 025a 4E75      	    rts
 223               	
 224               	* d0 = sound ordinal
 225               	osd_sound_stop:
 226 025c 0C00 000C 	    cmp.b   #BOMB_SND,d0                        | bomb is one-shot, ignore stop
 227 0260 6700 0018 	    beq     9f
68K GAS  src/megadrive/pcm4.68k 			page 9


 228 0264 48E7 8080 	    movem.l d0/a0,-(a7)
 229 0268 41F9 0000 	    lea     md_snd_playing,a0
 229      0000 
 230 026e 4230 0000 	    clr.b   (a0,d0.w)
 231 0272 6100 FED6 	    bsr     md_pcm_stop
 232 0276 4CDF 0101 	    movem.l (a7)+,d0/a0
 233 027a 4E75      	9:  rts
 234               	
 235               	osd_sound_mute:
 236 027c 48E7 80C0 	    movem.l d0/a0-a1,-(a7)
 237 0280 50F9 0000 	    st.b    (md_snd_muted)
 237      0000 
 238 0286 6100 FE10 	    bsr     md_z80_request
 239 028a 43F9 00A0 	    lea     (Z80_RAM+Z80_WAVVOL),a1
 239      0124 
 240 0290 12FC 0000 	    move.b  #0,(a1)+
 241 0294 12FC 0000 	    move.b  #0,(a1)+
 242 0298 12FC 0000 	    move.b  #0,(a1)+
 243 029c 12FC 0000 	    move.b  #0,(a1)+
 244 02a0 6100 FE0A 	    bsr     md_z80_release
 245 02a4 4CDF 0301 	    movem.l (a7)+,d0/a0-a1
 246 02a8 4E75      	    rts
 247               	
 248               	osd_sound_unmute:
 249 02aa 4239 0000 	    clr.b   (md_snd_muted)
 249      0000 
 250 02b0 4E75      	    rts
 251               	
 252               	    .bss
 253               	    .align 2
 254 0000 00        	md_snd_muted:       ds.b    1
 255 0001 00        	    .align 2
 256 0002 0000      	md_main_theme_cnt:  ds.w    1
 257 0004 0000      	md_andor_cnt:       ds.w    1
 258 0006 0000 0000 	md_snd_playing:     ds.b    0x20                | per-ordinal playing flags
 258      0000 0000 
 258      0000 0000 
 258      0000 0000 
 258      0000 0000 
 259               	
 260               	***************************************************************
 261               	*** binary blobs
 262               	***************************************************************
 263               	
 264               	    .section .rodata
 265               	    .align 2
 266               	pcm_driver:
 267 0000 F331 000E 	    .incbin "drv_pcm4.bin"
 267      ED56 AF32 
 267      0201 3200 
 267      01C3 0002 
 267      0000 0000 
 268               	pcm_driver_end:
 269 0a6d 00        	    .align 2
 270               	pcm_tab_vol:
 271 0a6e 0000 0000 	    .incbin "tab_vol.bin"
 271      0000 0000 
68K GAS  src/megadrive/pcm4.68k 			page 10


 271      0000 0000 
 271      0000 0000 
 271      0101 0101 
 272 1a6e 0000 0000 	    .balign 256
 272      0000 0000 
 272      0000 0000 
 272      0000 0000 
 272      0000 0000 
 273               	pcm_smp_null:
 274 1b00 0000 0000 	    .incbin "smp_null.bin"
 274      0000 0000 
 274      0000 0000 
 274      0000 0000 
 274      0000 0000 
68K GAS  src/megadrive/pcm4.68k 			page 11


DEFINED SYMBOLS
                            *ABS*:00000001 RELEASE
                            *ABS*:00000001 __megadrive__
src/megadrive/vdpregs.inc:6      *ABS*:00000000 ROM_BASE
src/megadrive/vdpregs.inc:7      *ABS*:00200001 SRAM_BASE
src/megadrive/vdpregs.inc:8      *ABS*:002003ff SRAM_END
src/megadrive/vdpregs.inc:9      *ABS*:00a00000 Z80_RAM
src/megadrive/vdpregs.inc:10     *ABS*:00a11100 Z80_BUSREQ
src/megadrive/vdpregs.inc:11     *ABS*:00a11200 Z80_RESET
src/megadrive/vdpregs.inc:12     *ABS*:00a10001 IO_VERSION
src/megadrive/vdpregs.inc:13     *ABS*:00a10003 IO_DATA1
src/megadrive/vdpregs.inc:14     *ABS*:00a10005 IO_DATA2
src/megadrive/vdpregs.inc:15     *ABS*:00a10009 IO_CTRL1
src/megadrive/vdpregs.inc:16     *ABS*:00a1000b IO_CTRL2
src/megadrive/vdpregs.inc:17     *ABS*:00a14000 TMSS_REG
src/megadrive/vdpregs.inc:18     *ABS*:00a130f1 SRAM_CTRL
src/megadrive/vdpregs.inc:19     *ABS*:00ff0000 RAM_BASE
src/megadrive/vdpregs.inc:22     *ABS*:00c00000 VDP_DATA
src/megadrive/vdpregs.inc:23     *ABS*:00c00004 VDP_CTRL
src/megadrive/vdpregs.inc:24     *ABS*:00c00008 VDP_HV
src/megadrive/vdpregs.inc:25     *ABS*:00c00011 PSG_PORT
src/megadrive/vdpregs.inc:33     *ABS*:0000a000 VRAM_WINDOW_NT
src/megadrive/vdpregs.inc:34     *ABS*:0000bc00 VRAM_SAT
src/megadrive/vdpregs.inc:35     *ABS*:0000bf00 VRAM_HSCROLL
src/megadrive/vdpregs.inc:36     *ABS*:0000c000 VRAM_PLANE_A
src/megadrive/vdpregs.inc:37     *ABS*:0000e000 VRAM_PLANE_B
src/megadrive/vdpregs.inc:41     *ABS*:00008004 VDPR00
src/megadrive/vdpregs.inc:42     *ABS*:00008134 VDPR01_OFF
src/megadrive/vdpregs.inc:43     *ABS*:00008174 VDPR01_ON
src/megadrive/vdpregs.inc:44     *ABS*:00008230 VDPR02
src/megadrive/vdpregs.inc:45     *ABS*:00008328 VDPR03
src/megadrive/vdpregs.inc:46     *ABS*:00008407 VDPR04
src/megadrive/vdpregs.inc:47     *ABS*:0000855e VDPR05
src/megadrive/vdpregs.inc:48     *ABS*:00008600 VDPR06
src/megadrive/vdpregs.inc:49     *ABS*:00008700 VDPR07
src/megadrive/vdpregs.inc:50     *ABS*:00008800 VDPR08
src/megadrive/vdpregs.inc:51     *ABS*:00008900 VDPR09
src/megadrive/vdpregs.inc:52     *ABS*:00008aff VDPR10
src/megadrive/vdpregs.inc:53     *ABS*:00008b00 VDPR11
src/megadrive/vdpregs.inc:54     *ABS*:00008c81 VDPR12
src/megadrive/vdpregs.inc:55     *ABS*:00008d2f VDPR13
src/megadrive/vdpregs.inc:56     *ABS*:00008e00 VDPR14
src/megadrive/vdpregs.inc:57     *ABS*:00008f02 VDPR15
src/megadrive/vdpregs.inc:58     *ABS*:00009011 VDPR16
src/megadrive/vdpregs.inc:59     *ABS*:00009191 VDPR17
src/megadrive/vdpregs.inc:60     *ABS*:00009200 VDPR18
     src/xevious.inc:9      *ABS*:00000000 OPT_DISABLE_FG_LAYER
     src/xevious.inc:10     *ABS*:00000000 OPT_DISABLE_BG_LAYER
     src/xevious.inc:11     *ABS*:00000000 OPT_DISABLE_SPRITES
     src/xevious.inc:12     *ABS*:00000000 OPT_DISABLE_DISPLAY_MASKS
     src/xevious.inc:15     *ABS*:00000001 OPT_SUB_HAS_IRQ
     src/xevious.inc:17     *ABS*:00000001 OPT_START_AREA
     src/xevious.inc:18     *ABS*:00000000 OPT_LOOP_AREA
     src/xevious.inc:19     *ABS*:00000000 OPT_INVINCIBLE
     src/xevious.inc:20     *ABS*:00000000 OPT_INFINITE_LIVES
     src/xevious.inc:22     *ABS*:00000000 OPT_START_SCORE
     src/xevious.inc:23     *ABS*:00000001 OPT_ENABLE_HIGH_SCORE_IO
68K GAS  src/megadrive/pcm4.68k 			page 12


     src/xevious.inc:24     *ABS*:00000001 OPT_TCDEV_EASTER_EGG
     src/xevious.inc:25     *ABS*:00000000 OPT_REVEAL_SOL_TOWER
     src/xevious.inc:26     *ABS*:00000000 OPT_REVEAL_BONUS_FLAG
     src/xevious.inc:27     *ABS*:00000000 OPT_DISPLAY_AREA
     src/xevious.inc:28     *ABS*:00000000 OPT_SKIP_SPLASH
     src/xevious.inc:29     *ABS*:00000000 OPT_SKIP_ATTRACT
     src/xevious.inc:70     *ABS*:00000000 _STATE
     src/xevious.inc:71     *ABS*:00000001 _ATTR
     src/xevious.inc:72     *ABS*:00000004 _EXTRA
     src/xevious.inc:73     *ABS*:00000008 _X
     src/xevious.inc:74     *ABS*:0000000a _dX
     src/xevious.inc:75     *ABS*:0000000c _ddX
     src/xevious.inc:76     *ABS*:0000000e _Y
     src/xevious.inc:77     *ABS*:00000010 _dY
     src/xevious.inc:78     *ABS*:00000012 _ddY
     src/xevious.inc:79     *ABS*:00000014 _CODE
     src/xevious.inc:80     *ABS*:00000015 _COLOUR
     src/xevious.inc:81     *ABS*:00000016 _PTS
     src/xevious.inc:82     *ABS*:00000018 _TIMER
     src/xevious.inc:83     *ABS*:00000019 _TIMER1
     src/xevious.inc:84     *ABS*:00000019 _NVEC
     src/xevious.inc:85     *ABS*:0000001a _TIMER2
     src/xevious.inc:86     *ABS*:0000001a _VECLEN
     src/xevious.inc:87     *ABS*:0000001c _FFREQ
     src/xevious.inc:88     *ABS*:0000001e _TYPE
     src/xevious.inc:90     *ABS*:00000020 _OBJSIZE
     src/xevious.inc:93     *ABS*:00000000 BANK_FG_COLORRAM
     src/xevious.inc:94     *ABS*:00000004 BANK_BG_COLORRAM
     src/xevious.inc:95     *ABS*:00000008 BANK_FG_VIDEORAM
     src/xevious.inc:96     *ABS*:0000000c BANK_BG_VIDEORAM
     src/xevious.inc:100    *ABS*:00000001 MAIN_THEME_SND
     src/xevious.inc:101    *ABS*:00000002 HIGHEST_SCORE_SND
     src/xevious.inc:102    *ABS*:00000003 HIGH_SCORE_SND
     src/xevious.inc:103    *ABS*:00000004 EXTRA_SOLVALOU_SND
     src/xevious.inc:104    *ABS*:00000005 FLYING_ENEMY_HIT_SND
     src/xevious.inc:105    *ABS*:00000006 GARU_ZAKATO_SND
     src/xevious.inc:106    *ABS*:00000007 ANDOR_GENESIS_SND
     src/xevious.inc:107    *ABS*:00000008 SHEONITE_SND
     src/xevious.inc:108    *ABS*:00000009 TELEPORT_SND
     src/xevious.inc:109    *ABS*:0000000a BACURA_HIT_SND
     src/xevious.inc:110    *ABS*:0000000b SHOT_SND
     src/xevious.inc:111    *ABS*:0000000c BOMB_SND
     src/xevious.inc:112    *ABS*:0000000d BONUS_FLAG_SND
     src/xevious.inc:113    *ABS*:0000000e SOLVALOU_SND
     src/xevious.inc:115    *ABS*:00000010 COIN_SND
     src/xevious.inc:116    *ABS*:00000011 GROUND_EXPLOSION_SND
     src/xevious.inc:117    *ABS*:00000012 SOLVALOU_EXPLOSION_SND
src/megadrive/pcm4.68k:31     .text:00000000 md_sound_init
src/megadrive/pcm4.68k:177    .text:000001a6 osd_sound_start
src/megadrive/pcm4.68k:225    .text:0000025c osd_sound_stop
src/megadrive/pcm4.68k:235    .text:0000027c osd_sound_mute
src/megadrive/pcm4.68k:248    .text:000002aa osd_sound_unmute
src/megadrive/pcm4.68k:17     *ABS*:00000100 Z80_COMMAND
src/megadrive/pcm4.68k:18     *ABS*:00000102 Z80_STATUS
src/megadrive/pcm4.68k:19     *ABS*:00000104 Z80_WAVADR
src/megadrive/pcm4.68k:20     *ABS*:00000114 Z80_IWAVADR
src/megadrive/pcm4.68k:21     *ABS*:00000124 Z80_WAVVOL
68K GAS  src/megadrive/pcm4.68k 			page 13


src/megadrive/pcm4.68k:22     *ABS*:00000128 Z80_NULLADR
src/megadrive/pcm4.68k:23     *ABS*:0000012a Z80_NULLLEN
src/megadrive/pcm4.68k:266    .rodata:00000000 pcm_driver
src/megadrive/pcm4.68k:268    .rodata:00000a6d pcm_driver_end
src/megadrive/pcm4.68k:270    .rodata:00000a6e pcm_tab_vol
src/megadrive/pcm4.68k:273    .rodata:00001b00 pcm_smp_null
src/megadrive/pcm4.68k:254    .bss:00000000 md_snd_muted
src/megadrive/pcm4.68k:75     .text:00000098 md_z80_request
src/megadrive/pcm4.68k:81     .text:000000ac md_z80_release
src/megadrive/pcm4.68k:90     .text:000000b6 md_pcm_play
src/megadrive/pcm4.68k:144    .text:0000014a md_pcm_stop
src/megadrive/pcm4.68k:258    .bss:00000006 md_snd_playing
src/megadrive/pcm4.68k:256    .bss:00000002 md_main_theme_cnt
src/megadrive/pcm4.68k:217    .text:00000246 snd_flag_and_play
src/megadrive/pcm4.68k:257    .bss:00000004 md_andor_cnt
src/megadrive/pcm4.68k:212    .text:00000236 snd_check_playing

UNDEFINED SYMBOLS
md_sound_table
