68K GAS  src/xevious_sub.68k 			page 1


   1               	***
   2               	***  XEVIOUS SUB CPU 68K core implementation
   3               	***    (transcoded from Z80 arcade code)
   4               	*** (c) 2022 tcdev
   5               	***
   6               	
   7               	* exports
   8               	
   9               	    *.global _start_of_xevious_sub_rom
  10               	    .global xevious_sub_reset
  11               	    .global xevious_sub_cpu
  12               		.global	xevious_sub_irq
  13               	    *.global _end_of_xevious_sub_rom
  14               		.global	area_object_tbl_tbl_pointer
  15               	* debugging only
  16               	    *.global sub_debug1
  17               	    *.global sub_debug2
  18               	
  19               	.include "xevious.inc"
   1               	
   2               	* xevious.inc
   3               	
   4               	***    
   5               	*** BUILD OPTIONS
   6               	***
   7               		.ifdef	RELEASE
   8               	    * hardware options
   9               	    OPT_DISABLE_FG_LAYER=0              | don't change values here!
  10               	    OPT_DISABLE_BG_LAYER=0              | don't change values here!
  11               	    OPT_DISABLE_SPRITES=0               | don't change values here!
  12               	    OPT_DISABLE_DISPLAY_MASKS=0         | don't change values here!
  13               											| don't change values here!
  14               	    * optimisation options              | don't change values here!
  15               	    OPT_SUB_HAS_IRQ=1                   | don't change values here!
  16               	    * game test options                 | don't change values here!
  17               	    OPT_START_AREA=1    | 1-16          | don't change values here!
  18               	    OPT_LOOP_AREA=0                     | don't change values here!
  19               	    OPT_INVINCIBLE=0                    | don't change values here!
  20               	    OPT_INFINITE_LIVES=0                | don't change values here!
  21               	    * score is BCD format               | don't change values here!
  22               	    OPT_START_SCORE=0x0000000           | don't change values here!
  23               	    OPT_ENABLE_HIGH_SCORE_IO=1          | don't change values here!
  24               	    OPT_TCDEV_EASTER_EGG=1              | don't change values here!
  25               	    OPT_REVEAL_SOL_TOWER=0              | don't change values here!
  26               	    OPT_REVEAL_BONUS_FLAG=0             | don't change values here!
  27               	    OPT_DISPLAY_AREA=0                  | don't change values here!
  28               	    OPT_SKIP_SPLASH=0                   | don't change values here!
  29               	    OPT_SKIP_ATTRACT=0                  | don't change values here!
  30               		.else
  31               		* dev/debug mode: changes here won't reflect on release version!
  32               	    * hardware options
  33               	    OPT_DISABLE_FG_LAYER=0
  34               	    OPT_DISABLE_BG_LAYER=0
  35               	    OPT_DISABLE_SPRITES=0
  36               	    OPT_DISABLE_DISPLAY_MASKS=0
  37               	
  38               	    * optimisation options
68K GAS  src/xevious_sub.68k 			page 2


  39               	    OPT_SUB_HAS_IRQ=1
  40               	    * game test options    
  41               	    OPT_START_AREA=1    | 1-16
  42               	    OPT_LOOP_AREA=0
  43               	    OPT_INVINCIBLE=0
  44               	    OPT_INFINITE_LIVES=0
  45               	    * score is BCD format
  46               	    OPT_START_SCORE=0x0000000
  47               	    OPT_ENABLE_HIGH_SCORE_IO=1
  48               	    OPT_TCDEV_EASTER_EGG=1
  49               	    OPT_REVEAL_SOL_TOWER=0
  50               	    OPT_REVEAL_BONUS_FLAG=0
  51               	    OPT_DISPLAY_AREA=0
  52               	    OPT_SKIP_SPLASH=0
  53               	    OPT_SKIP_ATTRACT=0
  54               		.endif
  55               	
  56               	* Mega Drive debug autoplay: start a real game immediately, no death,
  57               	* so unattended runs exercise gameplay/area-transition code paths
  58               		.ifdef	MD_AUTOPLAY
  59               		.set	OPT_SKIP_ATTRACT, 1
  60               		.endif
  61               		.ifdef	MD_INVINCIBLE
  62               		.set	OPT_INVINCIBLE, 1
  63               		.endif
  64               	
  65               	***
  66               	*** end of BUILD OPTIONS
  67               	***
  68               	
  69               	* offsets into object table
  70               	    .equ  _STATE,     0
  71               	    .equ  _ATTR,      1
  72               	    .equ  _EXTRA,     4
  73               	    .equ  _X,         8
  74               	    .equ  _dX,        10
  75               	    .equ  _ddX,       12
  76               	    .equ  _Y,         14
  77               	    .equ  _dY,        16
  78               	    .equ  _ddY,       18
  79               	    .equ  _CODE,      20
  80               	    .equ  _COLOUR,    21
  81               	    .equ  _PTS,       22
  82               	    .equ  _TIMER,     24
  83               	    .equ  _TIMER1,    25
  84               	      .equ  _NVEC,    25
  85               	    .equ  _TIMER2,    26
  86               	      .equ  _VECLEN,  26
  87               	    .equ  _FFREQ,     28
  88               	    .equ  _TYPE,      30
  89               	
  90               	    .equ  _OBJSIZE,   32
  91               	
  92               	* video functions
  93               	    .equ  BANK_FG_COLORRAM,   (0<<2)
  94               	    .equ  BANK_BG_COLORRAM,   (1<<2)
  95               	    .equ  BANK_FG_VIDEORAM,   (2<<2)
68K GAS  src/xevious_sub.68k 			page 3


  96               	    .equ  BANK_BG_VIDEORAM,   (3<<2)
  97               	
  98               	* sound ordinals
  99               	
 100               	    .equ  MAIN_THEME_SND,         0x01
 101               	    .equ  HIGHEST_SCORE_SND,      0x02
 102               	    .equ  HIGH_SCORE_SND,         0x03
 103               	    .equ  EXTRA_SOLVALOU_SND,     0x04
 104               	    .equ  FLYING_ENEMY_HIT_SND,   0x05
 105               	    .equ  GARU_ZAKATO_SND,        0x06
 106               	    .equ  ANDOR_GENESIS_SND,      0x07
 107               	    .equ  SHEONITE_SND,           0x08
 108               	    .equ  TELEPORT_SND,           0x09
 109               	    .equ  BACURA_HIT_SND,         0x0a
 110               	    .equ  SHOT_SND,               0x0b
 111               	    .equ  BOMB_SND,               0x0c
 112               	    .equ  BONUS_FLAG_SND,         0x0d
 113               	    .equ  SOLVALOU_SND,           0x0e
 114               	    * 60XX (noise chip?)
 115               	    .equ  COIN_SND,               0x10
 116               	    .equ  GROUND_EXPLOSION_SND,   0x11
 117               	    .equ  SOLVALOU_EXPLOSION_SND, 0x12
 118               	    
 119               	
 120               	
  20               	
  21               	* this doesn't return in the real code
  22               	* jut we are calling from main, so we
  23               	* initialise and return
  24               	
  25               	_start_of_xevious_sub_rom:
  26               	
  27               	
  28               	xevious_sub_reset: | $0000
  29 0000 41FA 0A6A 		lea		area_object_tbl_tbl_super(pc),a0
  30 0004 43FA 0592 		lea		flying_enemy_type_offset_tbl_super(pc),a1
  31 0008 4A39 0000 		tst.b	is_super_xevious
  31      0000 
  32 000e 6608      		jne	0f
  33 0010 41FA 0A1A 		lea		area_object_tbl_tbl_normal(pc),a0	
  34 0014 43FA 0442 		lea		flying_enemy_type_offset_tbl_normal(pc),a1
  35               	0:
  36 0018 23C8 0000 		move.l	a0,area_object_tbl_tbl_pointer
  36      0000 
  37 001e 23C9 0000 		move.l	a1,flying_enemy_type_offset_tbl_pointer
  37      0000 
  38 0024 601C      	    jra     sub_start
  39               	    
  40               	.ifne OPT_SUB_HAS_IRQ
  41               	xevious_sub_irq:
  42               	    *** these are ordinarily called from the main SUB routine
  43               	    *** because there is not interrupt context in SUB
  44               	    *** - calls these from the MAIN IRQ instead
  45               	    *** - try swapping the order to reduce 'shaking'
  46               	    ***   of ground objects
  47               	    ****jbsr       sub_fn_0__update_32_sprite_hw
  48 0026 303C 0020 	    move.w    #32,d0                            | start at sprite 32
68K GAS  src/xevious_sub.68k 			page 4


  49 002a 4EB9 0000 	    jsr       osd_update_32_sprite_hw
  49      0000 
  50               	    ***jbsr       sub_fn_1__update_scroll_hw
  51 0030 3C39 0000 	    move.w    (bg_scroll_x_shadow),d6
  51      0000 
  52 0036 4EB9 0000 	    jsr       osd_update_scroll_hw
  52      0000 
  53 003c 4E75      	    rts
  54               	.endif
  55               	
  56               	save_PC_to_fn_tbl_and_ret: | $0030
  57 003e 2C9F      	    move.l    (a7)+,(a6)                        | pop return and store in table
  58 0040 4E75      	    rts                                         | return up the call stack
  59               	
  60               	
  61               	sub_start: | $0165
  62               	    * Z80 copied area object table from ROM to RAM
  63               	    * so MAIN CPU could access it. No need to do so
  64               	    * on 68K as it's one program.
  65 0042 41FA 0058 	    lea       sub_fn_jump_tbl_ROM,a0
  66 0046 43F9 0000 	    lea       sub_fn_jump_tbl_RAM,a1            | need a copy to patch in RAM
  66      0000 
  67 004c 7E1F      	    moveq     #0x20-1,d7
  68 004e 22D8      	1:  move.l    (a0)+,(a1)+
  69 0050 51CF FFFC 	    dbf       d7,1b   
  70 0054 207A 09D2 	    move.l       area_object_tbl_tbl_pointer(pc),a0            | need to copy for MAIN
  71 0058 43F9 0000 	    lea       area_object_tbl_tbl_RAM,a1
  71      0000 
  72 005e 7E0F      	    move.q    #16-1,d7
  73 0060 22D8      	2:  move.l    (a0)+,(a1)+
  74 0062 51CF FFFC 	    dbf       d7,2b   
  75               	    * Return here after initialisation
  76               	    * main function will call below regularly
  77 0066 4E75      	    rts
  78               	    
  79               	
  80               	xevious_sub_cpu: | $018A
  81               	restart_main_fn_loop:
  82 0068 303C 100F 	    move.w    #0x100F,d0                        | blue
  83 006c 4EB9 0000 	    jsr       osd_debug_hook
  83      0000 
  84               	
  85 0072 4DF9 0000 	    lea       sub_fn_jump_tbl_RAM,a6            | 32 functions
  85      0000 
  86 0078 7E1F      	    moveq     #32-1,d7
  87               	main_fn_loop:   
  88 007a 2016      	    move.l    (a6),d0                           | get jump address
  89 007c 670C      		jeq	1f		| skip if 0
  90 007e 48E7 0102 	    movem.l   d7/a6,-(a7)
  91 0082 2040      	    move.l	d0,a0
  92 0084 4E90      	    jsr       (a0)                          | call function
  93 0086 4CDF 4080 	    movem.l   (a7)+,d7/a6
  94               	1:
  95               	    | next table entry (we can't do move.l (a6)+,d0
  96               		| as code seems to rely on current a6 value)
  97 008a 584E      		addq.w	#4,a6
  98 008c 51CF FFEC 	    dbf       d7,main_fn_loop
68K GAS  src/xevious_sub.68k 			page 5


  99               	
 100 0090 303C 8000 	    move.w    #0x8000,d0                        | black
 101 0094 4EB9 0000 	    jsr       osd_debug_hook
 101      0000 
 102               	
 103               	    * the Z80 code jumps back to restart_main_loop
 104               	    * - jut we need to share CPU with the MAIN code
 105               	    * - so return here
 106 009a 4E75      	9:  rts
 107               	
 108               	    .align 4
 109               	sub_fn_jump_tbl_ROM: | $01B6
 110               	.ifne OPT_SUB_HAS_IRQ
 111 009c 0000 0000 	    .long     0                           | not used
 112 00a0 0000 0000 	    .long     0                           | not used
 113               	.else
 114               	    .long     sub_fn_0__update_32_sprite_hw
 115               	    .long     sub_fn_1__update_scroll_hw
 116               	.endif
 117 00a4 0000 0000 	    .long     sub_fn_2__handle_objects
 118 00a8 0000 0000 	    .long     sub_fn_3__handle_next_area
 119 00ac 0000 0000 	    .long     sub_fn_4__handle_credits_and_start
 120 00b0 0000 0000 	    .long     sub_fn_5__handle_pulsing_colours
 121 00b4 0000 0000 	    .long     sub_fn_6__display_1UP_2UP
 122 00b8 0000 0000 	    .long     0                           | not used
 123 00bc 0000 0000 	    .long     0                           | not used
 124 00c0 0000 0000 	    .long     0                           | not used
 125 00c4 0000 0000 	    .long     0                           | not used
 126 00c8 0000 0000 	    .long     0                           | not used
 127 00cc 0000 0000 	    .long     0                           | not used
 128 00d0 0000 0000 	    .long     0                           | not used
 129 00d4 0000 0000 	    .long     0                           | not used
 130 00d8 0000 0000 	    .long     0                           | not used
 131 00dc 0000 0000 	    .long     0                           | not used
 132 00e0 0000 0000 	    .long     0                           | not used
 133 00e4 0000 0000 	    .long     0                           | not used
 134 00e8 0000 0000 	    .long     0                           | not used
 135 00ec 0000 0000 	    .long     0                           | not used
 136 00f0 0000 0000 	    .long     0                           | not used
 137 00f4 0000 0000 	    .long     0                           | not used
 138 00f8 0000 0000 	    .long     0                           | not used
 139 00fc 0000 0000 	    .long     0                           | not used
 140 0100 0000 0000 	    .long     0                           | not used
 141 0104 0000 0000 	    .long     0                           | not used
 142 0108 0000 0000 	    .long     0                           | not used
 143 010c 0000 0000 	    .long     0                           | not used
 144 0110 0000 0000 	    .long     0                           | not used
 145 0114 0000 0000 	    .long     sub_fn_30__handle_scroll
 146 0118 0000 0000 	    .long     sub_fn_31__update_sprite_shadow
 147               	        
 148               	sub_fn_0__update_32_sprite_hw: | $01F6
 149               	    * on the Neo Geo we have do disable VBLANK
 150               	    * and possibly on other platforms as well
 151               	    * the other options is to move this into VBLANK
 152               	    * see OPT_SUB_HAS_IRQ
 153 011c 4EB9 0000 	    jsr       osd_disable_vblank_interrupt
 153      0000 
68K GAS  src/xevious_sub.68k 			page 6


 154 0122 303C 0020 	    move.w    #32,d0                            | start at sprite 32
 155 0126 4EB9 0000 	    jsr       osd_update_32_sprite_hw
 155      0000 
 156 012c 4EF9 0000 	    jmp       osd_enable_vblank_interrupt
 156      0000 
 157               	        
 158               	sub_fn_1__update_scroll_hw: | $0218
 159               	    * on the Neo Geo we have do disable VBLANK
 160               	    * and possibly on other platforms as well
 161               	    * the other options is to move this into VBLANK
 162               	    * see OPT_SUB_HAS_IRQ
 163 0132 4EB9 0000 	    jsr       osd_disable_vblank_interrupt
 163      0000 
 164 0138 3C39 0000 	    move.w    (bg_scroll_x_shadow),d6
 164      0000 
 165 013e 4EB9 0000 	    jsr       osd_update_scroll_hw
 165      0000 
 166 0144 4EF9 0000 	    jmp       osd_enable_vblank_interrupt
 166      0000 
 167               	
 168               	* handling of reading coins and start buttons
 169               	* is done by the NAMCO chips
 170               	* - do it completely differently here
 171               	sub_fn_4__handle_credits_and_start: | $0227
 172 014a 4EB9 0000 	    jsr       osd_read_coin
 172      0000 
 173 0150 6722      	    jeq       1f
 174               	    * add a credit
 175 0152 0C39 0099 	    cmp.b     #0x99,(num_credits)               | max credits?
 175      0000 0000 
 176 015a 6718      	    jeq     1f                                | yes, exit
 177 015c 7001      	    moveq     #1,d0
 178 015e 1239 0000 	    move.b    (num_credits),d1
 178      0000 
 179 0164 C300      	    abcd      d0,d1
 180 0166 13C1 0000 	    move.b    d1,(num_credits)
 180      0000 
 181 016c 7010      	    moveq     #COIN_SND,d0
 182 016e 4EB9 0000 	    jsr       osd_sound_start
 182      0000 
 183               	    * process 1P, 2P
 184 0174 7400      	1:  moveq     #0,d2
 185 0176 4EB9 0000 	    jsr       osd_read_start
 185      0000 
 186 017c 6748      	    jeq     9f
 187 017e 0800 0000 	    btst.b    #0,d0                             | P1START?
 188 0182 670E      	    jeq     2f                                | no, skip
 189 0184 0C39 0001 	    cmp.b     #1,(num_credits)                  | enough for 1P?
 189      0000 0000 
 190 018c 6538      	    jcs     9f                                | no, exit
 191 018e 7401      	    moveq     #1,d2                             | 1 credit/player
 192 0190 6012      	    jra     8f
 193 0192 0800 0001 	2:  btst.b    #1,d0                             | P2START?
 194 0196 672E      	    jeq     9f                                | no, return
 195 0198 0C39 0002 	    cmp.b     #2,(num_credits)                  | enough for 2P?
 195      0000 0000 
 196 01a0 6524      	    jcs     9f                                | no, exit
68K GAS  src/xevious_sub.68k 			page 7


 197 01a2 7402      	    moveq     #2,d2                             | 2 credits/players
 198               	    * can start a game here
 199 01a4 023C 000F 	8:  andi      #0x0f,ccr                         | clear X
 200 01a8 1239 0000 	    move.b    (num_credits),d1
 200      0000 
 201 01ae 8302      	    sbcd      d2,d1                             | calc new credits
 202 01b0 13C1 0000 	    move.b    d1,(num_credits)
 202      0000 
 203 01b6 5302      	    subq.b    #1,d2                             | 0=1P/1=2P
 204 01b8 13C2 0000 	    move.b    d2,(two_player_game)
 204      0000 
 205 01be 13FC 0001 	    move.b    #1,(start_pressed)
 205      0000 0000 
 206 01c6 4E75      	9:  rts
 207               	
 208               	sub_fn_5__handle_pulsing_colours: | $0264
 209 01c8 4A39 0000 	    tst.b     (scroll_disabled)
 209      0000 
 210 01ce 6648      	    jne     9f
 211 01d0 1039 0000 	    move.b    (countup_timer_1),d0
 211      0000 
 212 01d6 E208      	    lsr.b     #1,d0
 213 01d8 0200 0003 	    and.b     #3,d0
 214 01dc 0600 0025 	    add.b     #0x25,d0                          | calculate colour
 215 01e0 4BF9 0000 	    lea       obj_tbl+0x27*_OBJSIZE,a5          | bullets
 215      0000 
 216 01e6 7E12      	    moveq     #19-1,d7                          | 19 bullets
 217 01e8 1B40 0015 	1:  move.b    d0,(_COLOUR,a5)
 218 01ec 4BED 0020 	    lea       (_OBJSIZE,a5),a5                  | next object
 219 01f0 51CF FFF6 	    dbf       d7,1b
 220 01f4 1039 0000 	    move.b    (countup_timer_1),d0
 220      0000 
 221 01fa E608      	    lsr.b     #3,d0
 222 01fc 0240 0007 	    and.w     #7,d0
 223 0200 41FA 0018 	    lea       colour_lut_pulsing_1,a0
 224 0204 13F0 0000 	    move.b    (a0,d0.w),(pulsing_colour_1)
 224      0000 0000 
 225 020c 41FA 0014 	    lea       colour_lut_pulsing_2,a0
 226 0210 13F0 0000 	    move.b    (a0,d0.w),(pulsing_colour_2)
 226      0000 0000 
 227 0218 4E75      	9:  rts
 228               	
 229               	colour_lut_pulsing_1:
 230 021a 0708 090A 	    .byte 7, 8, 9, 0xA, 0xB, 0xA, 9, 8
 230      0B0A 0908 
 231               	colour_lut_pulsing_2:
 232 0222 1011 1213 	    .byte 0x10, 0x11, 0x12, 0x13, 0x14, 0x13, 0x12, 0x11
 232      1413 1211 
 233               	    
 234               	sub_fn_30__handle_scroll: | $02A6
 235 022a 4A39 0000 	    tst.b     (scroll_disabled)
 235      0000 
 236 0230 661C      	    jne     9f
 237 0232 611C      	    jbsr     get_map_row
 238 0234 303C 0040 	    move.w    #0x40,d0
 239 0238 3239 0000 	    move.w    (scroll_cntr),d1
 239      0000 
68K GAS  src/xevious_sub.68k 			page 8


 240 023e D040      	    add.w     d0,d0
 241 0240 D041      	    add.w     d1,d0
 242 0242 EA48      	    lsr.w     #5,d0
 243 0244 0240 01FF 	    and.w     #0x1ff,d0
 244 0248 33C0 0000 	    move.w    d0,(bg_scroll_x_shadow)
 244      0000 
 245 024e 4E75      	9:  rts
 246               	
 247               	get_map_row: | $02D4
 248 0250 3039 0000 	    move.w    (scroll_cntr),d0
 248      0000 
 249 0256 3400      	    move.w    d0,d2                             | copy
 250 0258 3239 0000 	    move.w    (scroll_delta),d1
 250      0000 
 251 025e D241      	    add.w     d1,d1                             | x2
 252 0260 D240      	    add.w     d0,d1
 253 0262 33C1 0000 	    move.w    d1,(scroll_cntr)                  | update
 253      0000 
 254 0268 E049      	    lsr.w     #8,d1                             | scroll MSB
 255 026a E04A      	    lsr.w     #8,d2
 256 026c B202      	    cmp.b     d2,d1                             | same as before?
 257 026e 676A      	    jeq     9f                                | yes, return
 258 0270 6B04      	    jmi     1f
 259 0272 0601 0040 	    add.b     #0x40,d1
 260 0276 0601 00F2 	1:  add.b     #0xf2,d1                          | adjustment (map row)
 261 027a 1439 0000 	    move.b    (area_offset_in_map),d2
 261      0000 
 262 0280 0602 00FF 	    add.b     #0xFF,d2                          | adjustment (map column)
 263 0284 7E1F      	    moveq     #32-1,d7                          | 32 tiles
 264 0286 303C FE00 	    move.w    #0xFE00,d0                        | column=-2
 265 028a 8001      	2:  or.b      d1,d0                             | add map row
 266 028c 13C1 0000 	    move.b    d1,(xevious_bs0)                  | map row
 266      0000 
 267 0292 13C2 0000 	    move.b    d2,(xevious_bs1)                  | map col
 267      0000 
 268 0298 48E7 E000 	    movem.l   d0-d2,-(a7)
 269               		* d0 holds col,row
 270               		* inlined calc_colour_video_ram_offset: | $0038
 271 029c 3C00      	    move.w    d0,d6
 272 029e 5646      	    addq.w    #3,d6
 273 02a0 0246 003F 	    and.w     #0x003f,d6
 274 02a4 0640 0300 	    add.w     #0x0300,d0
 275 02a8 E448      	    lsr.w     #2,d0
 276 02aa 0240 07C0 	    and.w     #0x07C0,d0
 277 02ae 8046      	    or.w      d6,d0
 278 02b0 7C00      	    moveq     #0,d6
 279 02b2 6100 24B0 	    jbsr     xevious_bb_r                      | d6=attr
 280 02b6 3206      	    move.w    d6,d1
 281 02b8 4EB9 0000 	    jsr       osd_w_bg_colorram
 281      0000 
 282 02be 7C01      	    moveq     #1,d6
 283 02c0 6100 24A2 	    jbsr     xevious_bb_r                      | d6=tile
 284 02c4 3206      	    move.w    d6,d1
 285 02c6 4EB9 0000 	    jsr       osd_w_bg_videoram
 285      0000 
 286 02cc 4CDF 0007 	    movem.l   (a7)+,d0-d2
 287 02d0 0640 0100 	    add.w     #0x0100,d0
68K GAS  src/xevious_sub.68k 			page 9


 288 02d4 5202      	    addq.b    #1,d2
 289 02d6 51CF FFB2 	    dbf       d7,2b
 290 02da 4E75      	9:  rts
 291               	
 292               	sub_fn_31__update_sprite_shadow: | $031E
 293 02dc 4BF9 0000 	    lea       obj_tbl,a5
 293      0000 
 294 02e2 4EF9 0000 	    jmp       osd_update_sprite_shadow
 294      0000 
 295               	
 296               	* byte3 is a signed offset into flying_enemy_offset_tbl
 297               	* which in turn sets number of flying enemies and
 298               	* their types from flying_enemy_type_table in MAIN ROM.
 299               	* a0 = ptr byte 3
 300               	sub_2_fn_2__set_flying_enemies: | $03BD
 301 02e8 7000      	    moveq     #0,d0
 302 02ea 1010      	    move.b    (a0),d0
 303 02ec 4880      	    ext.w     d0                                | can be -ve
 304 02ee 41E8 0001 	    lea       (1,a0),a0
 305               	update_flying_enemies:
 306 02f2 227A 0120 	    move.l     flying_enemy_type_offset_tbl_pointer(pc),a1
 307 02f6 D040      		add.w	    d0,d0
 308 02f8 13F1 0000 	    move.b    (a1,d0.w),(num_flying_enemies)
 308      0000 0000 
 309 0300 13F1 0001 	    move.b    (1,a1,d0.w),(flying_enemy_type_tbl_offset)
 309      0000 0000 
 310 0308 23C8 0000 	    move.l    a0,(area_obj_ptr)
 310      0000 
 311 030e 4E75      	    rts
 312               	
 313               	* depending on difficulty setting, this function
 314               	* increases enemy_AI_level, and then uses it
 315               	* to index into the flying enemy type offset table
 316               	* a0 = ptr byte 3
 317               	sub_2_fn_3__inc_enemy_AI_and_flying_enemies: | $03D1
 318 0310 1239 0000 	    move.b    (dswb),d1
 318      0000 
 319 0316 4601      	    not.b     d1
 320 0318 E719      	    rol.b     #3,d1
 321 031a 0241 0003 	    and.w     #3,d1                             | difficulty DIPs
 322 031e 43FA 0032 	    lea       difficulty_tbl,a1
 323 0322 1031 1000 	    move.b    (a1,d1.w),d0                      | get entry
 324 0326 D039 0000 	    add.b     (enemy_AI_level),d0
 324      0000 
 325 032c 0C00 0080 	    cmp.b     #0x80,d0                          | too high?
 326 0330 6504      	    jcs     1f                                | no, skip
 327 0332 0400 0040 	    sub.b     #0x40,d0                          | decrease again
 328 0336 13C0 0000 	1:  move.b    d0,(enemy_AI_level)
 328      0000 
 329 033c 60B4      	    jra       update_flying_enemies
 330               	
 331               	sub_2_fn_5__reset_flying_enemies: | $03FD
 332 033e 4239 0000 	    clr.b     (num_flying_enemies)
 332      0000 
 333 0344 4239 0000 	    clr.b     (flying_enemy_type_tbl_offset)
 333      0000 
 334 034a 23C8 0000 	    move.l    a0,(area_obj_ptr)
68K GAS  src/xevious_sub.68k 			page 10


 334      0000 
 335 0350 4E75      	    rts
 336               	
 337               	* increments for AI level per difficulty DIP setting
 338               	difficulty_tbl: 
 339 0352 02        	    .byte   2
 340 0353 00        	    .byte   0
 341 0354 06        	    .byte   6
 342 0355 10        	    .byte   0x10
 343               	
 344               	sub_2_fn_23__adjust_AI_level_based_on_score: | $040C
 345 0356 23C8 0000 	    move.l    a0,(area_obj_ptr)
 345      0000 
 346 035c 3239 0000 	    move.w    (curr_player_score_msb),d1        | thousands, jCD
 346      0000 
 347 0362 1039 0000 	    move.b    (solvalou_number),d0
 347      0000 
 348 0368 6112      	    jbsr     avg_score_per_solvalou
 349 036a 0C41 0010 	    cmp.w     #16,d1                            | less than 16K/solvalou?
 350 036e 6F04      	    jle     1f                                | yes, skip
 351 0370 323C 0010 	    move.w    #16,d1                            | limit
 352 0374 D339 0000 	1:  add.b     d1,(enemy_AI_level)    
 352      0000 
 353 037a 4E75      	    rts
 354               	
 355               	* Divides score (K's) by sovlalou#
 356               	* (technically - treats jCD as binary)
 357               	* IOW - averge score per solvalou
 358               	* d1=score (K's,jCD), d0=#solvalou
 359               	* Returns 16-jit result in d1
 360               	avg_score_per_solvalou: | $0E23
 361 037c 1400      	    move.b    d0,d2
 362 037e 7000      	    moveq     #0,d0
 363 0380 7E0F      	    moveq     #16-1,d7
 364 0382 D241      	1:  add.w     d1,d1
 365 0384 E310      	    roxl.b    #1,d0
 366 0386 6504      	    jcs     2f
 367 0388 B002      	    cmp.b     d2,d0
 368 038a 6504      	    jcs     3f
 369 038c 9002      	2:  sub.b     d2,d0
 370 038e 5241      	    addq.w    #1,d1
 371 0390 51CF FFF0 	3:  dbf       d7,1b
 372 0394 4E75      	    rts
 373               	            
 374               	* a0 = ptr byte 3
 375               	sub_2_fn_8__fire_freq_mask_derota: | $043E
 376 0396 13D8 0000 	    move.b    (a0)+,(ffreq_mask_derota)    
 376      0000 
 377 039c 23C8 0000 	    move.l    a0,(area_obj_ptr)
 377      0000 
 378 03a2 4E75      	    rts
 379               	    
 380               	* a0 = ptr byte 3
 381               	sub_2_fn_9__fire_freq_mask_logram: | $0448
 382 03a4 13D8 0000 	    move.b    (a0)+,(ffreq_mask_logram)    
 382      0000 
 383 03aa 23C8 0000 	    move.l    a0,(area_obj_ptr)
68K GAS  src/xevious_sub.68k 			page 11


 383      0000 
 384 03b0 4E75      	    rts
 385               	
 386               	sub_2_fn_11__fire_freq_mask_zoshi: | $0452
 387 03b2 13D8 0000 	    move.b    (a0)+,(ffreq_mask_zoshi)   
 387      0000 
 388 03b8 23C8 0000 	    move.l    a0,(area_obj_ptr)
 388      0000 
 389 03be 4E75      	    rts
 390               	
 391               	sub_2_fn_12__fire_freq_mask_terrazi: | $045C
 392 03c0 13D8 0000 	    move.b    (a0)+,(ffreq_mask_terrazi)   
 392      0000 
 393 03c6 23C8 0000 	    move.l    a0,(area_obj_ptr)
 393      0000 
 394 03cc 4E75      	    rts
 395               	
 396               	sub_2_fn_13__fire_freq_mask_kapi: | $0466
 397 03ce 13D8 0000 	    move.b    (a0)+,(ffreq_mask_kapi)    
 397      0000 
 398 03d4 23C8 0000 	    move.l    a0,(area_obj_ptr)
 398      0000 
 399 03da 4E75      	    rts
 400               	
 401               	sub_2_fn_16__fire_freq_mask_boza_logram: | $0470
 402 03dc 13D8 0000 	    move.b    (a0)+,(ffreq_mask_boza_logram)   
 402      0000 
 403 03e2 23C8 0000 	    move.l    a0,(area_obj_ptr)
 403      0000 
 404 03e8 4E75      	    rts
 405               	
 406               	sub_2_fn_17__fire_freq_mask_domogram: | $047A
 407 03ea 13D8 0000 	    move.b    (a0)+,(ffreq_mask_domogram)    
 407      0000 
 408 03f0 23C8 0000 	    move.l    a0,(area_obj_ptr)
 408      0000 
 409 03f6 4E75      	    rts
 410               	
 411               	sub_2_fn_22__fire_freq_mask_andor_genesis: | $0484
 412 03f8 13D8 0000 	    move.b    (a0)+,(ffreq_mask_andor_genesis)   
 412      0000 
 413 03fe 23C8 0000 	    move.l    a0,(area_obj_ptr)
 413      0000 
 414 0404 4E75      	    rts
 415               	
 416               	sub_2_fn_10__gnd_stop_firing_row: | $048E
 417 0406 13D8 0000 	    move.b    (a0)+,(gnd_stop_firing_row)    
 417      0000 
 418 040c 23C8 0000 	    move.l    a0,(area_obj_ptr)
 418      0000 
 419 0412 4E75      	    rts
 420               	
 421               	flying_enemy_type_offset_tbl_pointer:
 422 0414 0000 0000 		.long	0
 423               	* flying enemy number and offset table
 424               	* - byte $00 -> $802B = num flying enemies
 425               	* - byte $01 -> $802C = offset into flying enemy type table
68K GAS  src/xevious_sub.68k 			page 12


 426               	
 427               	* this table can have negative offsets!
 428 0418 040B 050A 	    .byte 4, 0xB, 5, 0xA, 6, 9, 6, 0x25, 6, 0x5C, 6, 0x29, 6, 0x5E, 6, 0x64
 428      0609 0625 
 428      065C 0629 
 428      065E 0664 
 429 0428 0666 0672 	    .byte 6, 0x66, 6, 0x72, 4, 0x30, 4, 0x31, 5, 0x30, 6, 0x30, 6, 0x3F, 6, 0x48
 429      0430 0431 
 429      0530 0630 
 429      063F 0648 
 430 0438 064B 0254 	    .byte 6, 0x4B, 2, 0x54, 3, 0x54, 4, 0x54, 2, 0x58, 3, 0x58, 4, 0x58, 4, 0x58
 430      0354 0454 
 430      0258 0358 
 430      0458 0458 
 431 0448 0458 0458 	    .byte 4, 0x58, 4, 0x58, 4, 0x58, 4, 0x58, 4, 0x58, 4, 0x58, 4, 0x58, 4, 0x58
 431      0458 0458 
 431      0458 0458 
 431      0458 0458 
 432               	flying_enemy_type_offset_tbl_normal:
 433 0458 0301 0301 	    .byte 3, 1, 3, 1, 3, 1, 4, 1, 4, 1, 4, 1, 5, 1, 5, 1
 433      0301 0401 
 433      0401 0401 
 433      0501 0501 
 434 0468 0501 0219 	    .byte 5, 1, 2, 0x19, 2, 0x19, 2, 0x19, 4, 1, 4, 1, 4, 4, 4, 4
 434      0219 0219 
 434      0401 0401 
 434      0404 0404 
 435 0478 0405 0405 	    .byte 4, 5, 4, 5, 5, 5, 5, 5, 6, 5, 6, 5, 3, 0x19, 3, 0x19
 435      0505 0505 
 435      0605 0605 
 435      0319 0319 
 436 0488 0419 0419 	    .byte 4, 0x19, 4, 0x19, 5, 0x19, 5, 0x19, 3, 0x27, 3, 0x27, 4, 0x27, 4, 0x27
 436      0519 0519 
 436      0327 0327 
 436      0427 0427 
 437 0498 0527 0527 	    .byte 5, 0x27, 5, 0x27, 3, 0x1F, 3, 0x1F, 4, 0x1F, 4, 0x1F, 5, 0x1F, 5, 0x1F
 437      031F 031F 
 437      041F 041F 
 437      051F 051F 
 438 04a8 0313 0313 	    .byte 3, 0x13, 3, 0x13, 4, 0x13, 4, 0x13, 5, 0x13, 5, 0x13, 3, 0x36, 3, 0x36
 438      0413 0413 
 438      0513 0513 
 438      0336 0336 
 439 04b8 0337 0337 	    .byte 3, 0x37, 3, 0x37, 4, 0x37, 4, 0x37, 3, 0x2D, 3, 0x2D, 4, 0x2D, 4, 0x2D
 439      0437 0437 
 439      032D 032D 
 439      042D 042D 
 440 04c8 052D 052D 	    .byte 5, 0x2D, 5, 0x2D, 4, 0x12, 4, 0x12, 4, 0x11, 4, 0x11, 5, 0x11, 5, 0x11
 440      0412 0412 
 440      0411 0411 
 440      0511 0511 
 441 04d8 0517 0517 	    .byte 5, 0x17, 5, 0x17, 6, 0x17, 6, 0x17, 2, 0x3C, 3, 0x3C, 3, 0x3C, 4, 0x3C
 441      0617 0617 
 441      023C 033C 
 441      033C 043C 
 442 04e8 043C 053C 	    .byte 4, 0x3C, 5, 0x3C, 5, 0x19, 5, 0x19, 6, 0x19, 6, 0x19, 2, 0x45, 3, 0x45
 442      0519 0519 
68K GAS  src/xevious_sub.68k 			page 13


 442      0619 0619 
 442      0245 0345 
 443 04f8 0345 0445 	    .byte 3, 0x45, 4, 0x45, 4, 0x45, 5, 0x45, 5, 0x2D, 5, 0x2D, 6, 0x2D, 6, 0x2D
 443      0445 0545 
 443      052D 052D 
 443      062D 062D 
 444 0508 0427 0427 	    .byte 4, 0x27, 4, 0x27, 5, 0x27, 5, 0x27, 6, 0x27, 6, 0x27, 5, 0xD, 5, 0xD
 444      0527 0527 
 444      0627 0627 
 444      050D 050D 
 445 0518 060D 060D 	    .byte 6, 0xD, 6, 0xD, 2, 0x6D, 3, 0x6C, 3, 0x6C, 4, 0x6C, 4, 0x6C, 5, 0x6C
 445      026D 036C 
 445      036C 046C 
 445      046C 056C 
 446 0528 060D 060D 	    .byte 6, 0xD, 6, 0xD, 6, 7, 6, 7, 6, 7, 6, 7, 2, 0x4E, 3, 0x4E
 446      0607 0607 
 446      0607 0607 
 446      024E 034E 
 447 0538 034E 044E 	    .byte 3, 0x4E, 4, 0x4E, 4, 0x4E, 5, 0x4E, 6, 7, 6, 7, 6, 7, 6, 7
 447      044E 054E 
 447      0607 0607 
 447      0607 0607 
 448 0548 0154 0254 	    .byte 1, 0x54, 2, 0x54, 6, 7, 6, 7, 6, 7, 6, 7, 1, 0x58, 2, 0x58
 448      0607 0607 
 448      0607 0607 
 448      0158 0258 
 449               	
 450               	
 451 0558 0401 0301 	    .byte 4, 1, 3, 1, 3, 0x49, 1, 0x39, 6, 0x2D, 6, 0x23, 6, 0x11, 4, 0x2D
 451      0349 0139 
 451      062D 0623 
 451      0611 042D 
 452 0568 0523 036C 	    .byte 5, 0x23, 3, 0x6C, 3, 0x49, 4, 0x4A, 6, 0xE, 6, 0x4F, 6, 0x26, 6, 0x6C
 452      0349 044A 
 452      060E 064F 
 452      0626 066C 
 453 0578 0611 0339 	    .byte 6, 0x11, 3, 0x39, 5, 0x23, 6, 0x49, 6, 0x2F, 3, 0x3C, 6, 1, 6, 0xE
 453      0523 0649 
 453      062F 033C 
 453      0601 060E 
 454 0588 017A 027A 	    .byte 1, 0x7A, 2, 0x7A, 4, 0x7A, 6, 0x7A, 4, 0x58, 4, 0x58, 4, 0x58, 4, 0x58
 454      047A 067A 
 454      0458 0458 
 454      0458 0458 
 455               	flying_enemy_type_offset_tbl_super:
 456 0598 0301 0301 	    .byte 3, 1, 3, 1, 4, 1, 3, 3, 3, 5, 4, 3, 4, 4, 4, 5
 456      0401 0303 
 456      0305 0403 
 456      0404 0405 
 457 05a8 0317 0504 	    .byte 3, 0x17, 5, 4, 4, 0x17, 5, 5, 4, 0x17, 6, 3, 4, 0x17, 6, 4
 457      0417 0505 
 457      0417 0603 
 457      0417 0604 
 458 05b8 031D 0605 	    .byte 3, 0x1D, 6, 5, 4, 0x1D, 6, 5, 5, 0x17, 4, 0x1D, 5, 0x17, 5, 0x1D
 458      041D 0605 
 458      0517 041D 
 458      0517 051D 
68K GAS  src/xevious_sub.68k 			page 14


 459 05c8 042D 0517 	    .byte 4, 0x2D, 5, 0x17, 5, 0x2D, 6, 0x1D, 6, 0x17, 4, 0x20, 6, 0x2D, 3, 0x23
 459      052D 061D 
 459      0617 0420 
 459      062D 0323 
 460 05d8 030B 062D 	    .byte 3, 0xB, 6, 0x2D, 4, 0xB, 4, 0x23, 3, 0x11, 6, 0x2D, 5, 0xB, 5, 0x23
 460      040B 0423 
 460      0311 062D 
 460      050B 0523 
 461 05e8 0340 060D 	    .byte 3, 0x40, 6, 0xD, 4, 0x40, 6, 0xB, 6, 0x2D, 5, 0x40, 6, 0x23, 6, 0xE
 461      0440 060B 
 461      062D 0540 
 461      0623 060E 
 462 05f8 0362 0442 	    .byte 3, 0x62, 4, 0x42, 4, 0x62, 6, 0x14, 6, 0x11, 4, 0x44, 4, 0x62, 6, 0x14
 462      0462 0614 
 462      0611 0444 
 462      0462 0614 
 463 0608 0333 0445 	    .byte 3, 0x33, 4, 0x45, 4, 0x33, 5, 0x62, 3, 0x47, 6, 0x11, 6, 0x14, 6, 0x49
 463      0433 0562 
 463      0347 0611 
 463      0614 0649 
 464 0618 044C 0533 	    .byte 4, 0x4C, 5, 0x33, 6, 0x62, 3, 0x27, 6, 0x56, 6, 0x5C, 6, 0x2D, 5, 0x33
 464      0662 0327 
 464      0656 065C 
 464      062D 0533 
 465 0628 0662 0605 	    .byte 6, 0x62, 6, 5, 6, 0x4C, 5, 0x26, 6, 0x52, 6, 0x33, 6, 0x11, 1, 0x39
 465      064C 0526 
 465      0652 0633 
 465      0611 0139 
 466 0638 0617 0650 	    .byte 6, 0x17, 6, 0x50, 2, 0x39, 6, 0x6E, 6, 0x33, 6, 0x2F, 6, 0x2D, 3, 0x39
 466      0239 066E 
 466      0633 062F 
 466      062D 0339 
 467 0648 0605 0652 	    .byte 6, 5, 6, 0x52, 6, 0x27, 6, 0x60, 3, 0x39, 4, 0x6E, 6, 0x62, 4, 0x70
 467      0627 0660 
 467      0339 046E 
 467      0662 0470 
 468 0658 033C 0273 	    .byte 3, 0x3C, 2, 0x73, 6, 0x56, 6, 0x50, 6, 0x52, 4, 0x39, 6, 0x26, 6, 0x2D
 468      0656 0650 
 468      0652 0439 
 468      0626 062D 
 469 0668 0633 0605 	    .byte 6, 0x33, 6, 5, 4, 0x3C, 5, 0x71, 6, 0x56, 6, 0x74, 6, 0x11, 5, 0x3A
 469      043C 0571 
 469      0656 0674 
 469      0611 053A 
 470 0678 0617 0652 	    .byte 6, 0x17, 6, 0x52, 5, 0x39, 6, 0x50, 6, 0x56, 6, 0x27, 6, 0x2D, 6, 0x6C
 470      0539 0650 
 470      0656 0627 
 470      062D 066C 
 471 0688 0605 053A 	    .byte 6, 5, 5, 0x3A, 6, 0x65, 5, 0x75, 6, 0x69, 6, 0x2B, 6, 0x35, 6, 0x3A
 471      0665 0575 
 471      0669 062B 
 471      0635 063A 
 472               	
 473               	
 474               	sub_2_fn_7__reset_num_bacura: | $05D8
 475 0698 4239 0000 	    clr.b     (num_bacura)
 475      0000 
68K GAS  src/xevious_sub.68k 			page 15


 476 069e 23C8 0000 	    move.l    a0,(area_obj_ptr)
 476      0000 
 477 06a4 4E75      	    rts
 478               	    
 479               	* handles Domogram (dome that follows paths)
 480               	* byte2 = type
 481               	* byte3 = offset
 482               	* byte4 = sprite Y
 483               	* byte5 = num 2-byte entries to follow
 484               	* byte6 = vector length
 485               	* byte7 = index into domogram vector table (dY,dX pairs)
 486               	* byteN...
 487               	*
 488               	* @$7F<byte3> = <byte2> (type)
 489               	* @$7B<byte3> = <byte4> sprite Y[2:0] x32
 490               	* @$7B<byte3+1> = <byte4> sprite Y[7:3] /8
 491               	* @$7D<byte3+1> = <byte5> num 2-byte entries to follow
 492               	* @$9380<n*64> = <byte5>*2 bytes copied from <byte6> onwards
 493               	
 494               	sub_2_fn_15__domogram: | $05E1
 495 06a6 7000      	    moveq     #0,d0
 496 06a8 1010      	    move.b    (a0),d0                           | byte3=object offset (Z80)
 497               	    *** this will change if _OBJSIZE changes
 498 06aa E948      	    lsl.w     #4,d0                             | object offset (68K)
 499 06ac 4BF9 0000 	    lea       obj_tbl,a5
 499      0000 
 500 06b2 4BF5 0000 	    lea       (a5,d0.w),a5                      | set object base
 501 06b6 1B68 FFFF 	    move.b    (-1,a0),(_TYPE,a5)
 501      001E 
 502 06bc 7000      	    moveq     #0,d0
 503 06be 1028 0001 	    move.b    (1,a0),d0                         | byte4=spriteY
 504 06c2 EB48      	    lsl.w     #5,d0                             | x32
 505 06c4 3B40 000E 	    move.w    d0,(_Y,a5)
 506 06c8 7000      	    moveq     #0,d0
 507 06ca 1028 0002 	    move.b    (2,a0),d0                         | byte5=num entries
 508 06ce D0FC 0003 	    adda.w    #3,a0                             | ptr domogrm data
 509 06d2 2248      	    move.l    a0,a1                             | copy
 510 06d4 1B40 0019 	    move.b    d0,(_NVEC,a5)                     | number of domogram vectors
 511 06d8 D040      	    add.w     d0,d0                             | bytes to skip
 512 06da D0C0      	    adda.w    d0,a0
 513 06dc 23C8 0000 	    move.l    a0,(area_obj_ptr)
 513      0000 
 514 06e2 3039 0000 	    move.w    (next_domogram),d0
 514      0000 
 515 06e8 ED48      		  lsl.w     #6,d0                             | *64 offset in table
 516 06ea 45F9 0000 	    lea       domogram_tbl,a2
 516      0000 
 517 06f0 45F2 0000 	    lea       (a2,d0.w),a2                      | address in table
 518 06f4 2B4A 0004 	    move.l    a2,(_EXTRA,a5)                    | store ptr
 519 06f8 7E3F      	    moveq     #64-1,d7                          | 64 bytes (max) to copy
 520 06fa 14D9      	1:  move.b    (a1)+,(a2)+                       | copy path data
 521 06fc 51CF FFFC 	    dbf       d7,1b
 522 0700 3039 0000 	    move.w    (next_domogram),d0
 522      0000 
 523 0706 5200      	    addq.b    #1,d0
 524 0708 0C00 000C 	    cmp.b     #12,d0                            | wrap?
 525 070c 6502      	    jcs     2f
68K GAS  src/xevious_sub.68k 			page 16


 526 070e 4240      	    clr.w     d0
 527 0710 33C0 0000 	2:  move.w    d0,(next_domogram)
 527      0000 
 528 0716 4E75      	    rts
 529               	
 530               	sub_2_fn_18__sheonite_start: | $062E
 531 0718 4BF9 0000 	    lea       obj_tbl+_OBJSIZE*0x3f,a5          | 6th flying object
 531      0000 
 532 071e 1B7C 0031 	    move.b    #0x31,(_TYPE,a5)
 532      001E 
 533 0724 4BED FFE0 	    lea       (-_OBJSIZE,a5),a5                 | 5th flying object
 534 0728 1B7C 0032 	    move.b    #0x32,(_TYPE,a5)
 534      001E 
 535 072e 4239 0000 	    clr.b     (sheonite_end_flag)
 535      0000 
 536 0734 23C8 0000 	    move.l    a0,(area_obj_ptr)
 536      0000 
 537 073a 4E75      	    rts   
 538               	    
 539               	sub_2_fn_19__sheonite_end: | $0640
 540 073c 13FC 0001 	    move.b    #1,(sheonite_end_flag)            | flag time to leave
 540      0000 0000 
 541 0744 23C8 0000 	    move.l    a0,(area_obj_ptr)
 541      0000 
 542 074a 4E75      	    rts   
 543               	
 544               	sub_2_fn_20__andor_genesis_start: | $064A
 545 074c 4BF9 0000 	    lea       obj_tbl+_OBJSIZE*0x0F,a5
 545      0000 
 546               	    ** Another Xevious jUG!!!
 547               	    ** state=2 causes this object to award points when
 548               	    ** the core is bombed
 549               	    ** - points are awarded from the last object #15
 550 0752 1ABC 0002 	    move.b    #2,(_STATE,a5)
 551 0756 422D 0001 	    clr.b     (_ATTR,a5)                        | size=1x1
 552 075a 1B7C 00F8 	    move.b    #0xf8,(_X,a5)                     | MSB
 552      0008 
 553 0760 3B7C 0E80 	    move.w    #0x0e80,(_Y,a5)
 553      000E 
 554 0766 422D 0014 	    clr.b     (_CODE,a5)
 555 076a 23C8 0000 	    move.l    a0,(area_obj_ptr)
 555      0000 
 556 0770 4239 0000 	    clr.b     (andor_genesis_end_flag)
 556      0000 
 557 0776 41FA 0018 	    lea       andor_genesis_data,a0
 558 077a 43F9 0000 	    lea       obj_tbl+_OBJSIZE*1,a1             | object1
 558      0000 
 559 0780 7E0E      	    moveq     #15-1,d7                          | 15 objects
 560 0782 1358 001E 	1:  move.b    (a0)+,(_TYPE,a1)
 561 0786 43E9 0020 	    lea       (_OBJSIZE,a1),a1
 562 078a 51CF FFF6 	    dbf       d7,1b
 563 078e 4E75      	    rts   
 564               	
 565               	andor_genesis_data: | $0676
 566 0790 4142 4344 	    .byte 0x41, 0x42, 0x43, 0x44, 0x45, 0x46, 0x47, 0x48, 0x49, 0x52, 0x51, 0x50, 0x4F, 0x4A, 0x4B
 566      4546 4748 
 566      4952 5150 
68K GAS  src/xevious_sub.68k 			page 17


 566      4F4A 4B
 567 079f 00        	    .align 2
 568               	    
 569               	sub_2_fn_21__andor_genesis_end: | $0685
 570 07a0 23C8 0000 	    move.l    a0,(area_obj_ptr)
 570      0000 
 571 07a6 13FC 0001 	    move.b    #1,(andor_genesis_end_flag)
 571      0000 0000 
 572 07ae 4E75      	    rts   
 573               	                
 574               	sub_fn_2__handle_objects: | $068F
 575 07b0 2079 0000 	    movea.l   (area_obj_ptr),a0
 575      0000 
 576               	    ** Another Xevious jUG!!!
 577               	    ** We need to check for zero here, because this
 578               	    ** gets executed before area_obj_ptr and scroll_cntr
 579               	    ** are initialised by the MAIN CPU.
 580               	    ** In the Z80 code, @$0000=$3E, which doesn't match
 581               	    ** On the Neo Geo, @$0000=$00, which does match
 582               	    **   and ultimately jumps to an invalid address
 583 07b6 B1FC 0000 	    cmpa.l    #0,a0
 583      0000 
 584 07bc 672A      	    jeq     9f
 585 07be 1039 0000 	    move.b    (scroll_cntr),d0                  | MSB
 585      0000 
 586 07c4 B010      	    cmp.b     (a0),d0                           | current row?
 587 07c6 6620      	    jne     9f
 588 07c8 7000      	    moveq     #0,d0
 589 07ca 1028 0001 	    move.b    (1,a0),d0                         | byte #2 (type)
 590 07ce D0FC 0002 	    adda.w    #2,a0                             | ptr byte #3
 591 07d2 43FA 0016 	    lea       obj_fn_tbl,a1
 592 07d6 1031 00FF 	    move.b    (-1,a1,d0.w),d0                   | table is -1 based, index=type
 593 07da 43FA 006C 	    lea       sub_fn_2_handler,a1
 594               		.ifdef	NO68020
 595 07de D040      	    add.w     d0,d0
 596 07e0 D040      	    add.w     d0,d0                             | offset in table
 597 07e2 2271 0000 	    movea.l   (a1,d0.w),a1                      | jump address
 598 07e6 4ED1      	    jmp       (a1)
 599               		.else
 600               		jmp		([a1,d0.w*4])
 601               		.endif
 602 07e8 4E75      	9:  rts
 603               	
 604               	* table of function handlers for each object type
 605               	* - 1-based
 606               	obj_fn_tbl: | $06AA
 607 07ea 0002 0304 	    .byte 0, 2, 3, 4, 5, 0, 0, 0, 0, 0, 0, 0, 0, 0, 0, 0
 607      0500 0000 
 607      0000 0000 
 607      0000 0000 
 608 07fa 0000 0000 	    .byte 0, 0, 0, 0, 0, 0, 0, 0, 0xE, 0xE, 1, 0, 1, 1, 1, 1
 608      0000 0000 
 608      0E0E 0100 
 608      0101 0101 
 609 080a 0106 0708 	    .byte 1, 6, 7, 8, 9, 1, 1, 0xA, 0xB, 0xC, 0xD, 1, 1, 0xF, 0x10, 0x11
 609      0901 010A 
 609      0B0C 0D01 
68K GAS  src/xevious_sub.68k 			page 18


 609      010F 1011 
 610 081a 0000 1213 	    .byte 0, 0, 0x12, 0x13, 1, 1, 1, 1, 1, 1, 1, 1, 1, 1, 1, 1
 610      0101 0101 
 610      0101 0101 
 610      0101 0101 
 611 082a 0101 0101 	    .byte 1, 1, 1, 1, 1, 1, 1, 1, 1, 1, 1, 0x14, 0x15, 0x16, 0, 0
 611      0101 0101 
 611      0101 0114 
 611      1516 0000 
 612 083a 0000 0100 	    .byte 0, 0, 1, 0, 0, 0, 0x17
 612      0000 17
 613               	    * added for Super Xevious
 614 0841 0000 0001 	    .byte 0, 0, 0, 1, 1, 1
 614      0101 
 615               	
 616 0847 00        	    .align 4    
 617               	sub_fn_2_handler:
 618 0848 0000 0000 	    .long     sub_2_fb_0__type_only
 619 084c 0000 0000 	    .long     sub_2_fn_1__ground_object
 620 0850 0000 0000 	    .long     sub_2_fn_2__set_flying_enemies
 621 0854 0000 0000 	    .long     sub_2_fn_3__inc_enemy_AI_and_flying_enemies
 622 0858 0000 0000 	    .long     null_fn                           | UNUSED
 623 085c 0000 0000 	    .long     sub_2_fn_5__reset_flying_enemies
 624 0860 0000 0000 	    .long     sub_2_fn_6__set_bacura_inc_cnt
 625 0864 0000 0000 	    .long     sub_2_fn_7__reset_num_bacura
 626 0868 0000 0000 	    .long     sub_2_fn_8__fire_freq_mask_derota
 627 086c 0000 0000 	    .long     sub_2_fn_9__fire_freq_mask_logram
 628 0870 0000 0000 	    .long     sub_2_fn_10__gnd_stop_firing_row
 629 0874 0000 0000 	    .long     sub_2_fn_11__fire_freq_mask_zoshi
 630 0878 0000 0000 	    .long     sub_2_fn_12__fire_freq_mask_terrazi
 631 087c 0000 0000 	    .long     sub_2_fn_13__fire_freq_mask_kapi
 632 0880 0000 0000 	    .long     null_fn                           | UNUSED
 633 0884 0000 0000 	    .long     sub_2_fn_15__domogram
 634 0888 0000 0000 	    .long     sub_2_fn_16__fire_freq_mask_boza_logram
 635 088c 0000 0000 	    .long     sub_2_fn_17__fire_freq_mask_domogram
 636 0890 0000 0000 	    .long     sub_2_fn_18__sheonite_start
 637 0894 0000 0000 	    .long     sub_2_fn_19__sheonite_end
 638 0898 0000 0000 	    .long     sub_2_fn_20__andor_genesis_start
 639 089c 0000 0000 	    .long     sub_2_fn_21__andor_genesis_end
 640 08a0 0000 0000 	    .long     sub_2_fn_22__fire_freq_mask_andor_genesis
 641 08a4 0000 0000 	    .long     sub_2_fn_23__adjust_AI_level_based_on_score
 642               	
 643               	* add object type only
 644               	* - byte2 is object type
 645               	* - byte3 is offset in RAM
 646               	*
 647               	* @$7F<byte3> = byte2 (type)
 648               	* a0 = ptr byte 3
 649               	sub_2_fb_0__type_only: | $0731
 650 08a8 7000      	    moveq     #0,d0
 651 08aa 1010      	    move.b    (a0),d0                           | byte3=object offset (Z80)
 652               	    *** this will change if _OBJSIZE changes
 653 08ac E948      	    lsl.w     #4,d0                             | object offset (68K)
 654 08ae 4BF9 0000 	    lea       obj_tbl,a5
 654      0000 
 655 08b4 4BF5 0000 	    lea       (a5,d0.w),a5                      | set object base
 656 08b8 1B68 FFFF 	    move.b    (-1,a0),(_TYPE,a5)
68K GAS  src/xevious_sub.68k 			page 19


 656      001E 
 657 08be 41E8 0001 	    lea       (1,a0),a0
 658 08c2 23C8 0000 	    move.l    a0,(area_obj_ptr)
 658      0000 
 659 08c8 4E75      	    rts
 660               	 
 661               	null_fn:
 662 08ca 4E75      		rts
 663               		
 664               	* add object type and sprite coordinate
 665               	* - byte2 is object type
 666               	* - byte3 is offset in RAM
 667               	* - byte4 is sprite pixel Y coordinate
 668               	*
 669               	* @$7F<byte3> = <byte2> (type)
 670               	* @$7B<byte3> = <byte4> (spriteY[2:0] x32)
 671               	* @$7B<byte3+1> = <byte4> (spriteY[7:3] /8)
 672               	* a0 = ptr byte 3
 673               	sub_2_fn_1__ground_object: | $073F
 674 08cc 7000      	    moveq     #0,d0
 675 08ce 1010      	    move.b    (a0),d0                           | byte3=object offset (Z80)
 676               	    *** this will change if _OBJSIZE changes
 677 08d0 E948      	    lsl.w     #4,d0                             | object offset (68K)
 678 08d2 4BF9 0000 	    lea       obj_tbl,a5
 678      0000 
 679 08d8 4BF5 0000 	    lea       (a5,d0.w),a5                      | set object base
 680 08dc 1B68 FFFF 	    move.b    (-1,a0),(_TYPE,a5)
 680      001E 
 681 08e2 7000      	    moveq     #0,d0
 682 08e4 1028 0001 	    move.b    (1,a0),d0                         | spriteY
 683 08e8 EB48      	    lsl.w     #5,d0                             | x32
 684 08ea 3B40 000E 	    move.w    d0,(_Y,a5)
 685 08ee 41E8 0002 	    lea       (2,a0),a0                         | next object
 686 08f2 23C8 0000 	    move.l    a0,(area_obj_ptr)
 686      0000 
 687 08f8 4E75      	    rts
 688               	
 689               	* sets the number of bacura to be added
 690               	* - one added every 1 second
 691               	sub_2_fn_6__set_bacura_inc_cnt: | $075D
 692 08fa 13D8 0000 	    move.b    (a0)+,(bacura_inc_cnt)
 692      0000 
 693 0900 23C8 0000 	    move.l    a0,(area_obj_ptr)
 693      0000 
 694 0906 4E75      	    rts
 695               	    
 696               	sub_fn_3__handle_next_area: | $078B
 697 0908 6100 F734 	    jbsr       save_PC_to_fn_tbl_and_ret   
 698 090c 0C39 000E 	    cmp.b     #0x0e,(scroll_cntr)               | MSB
 698      0000 0000 
 699 0914 6744      	    jeq     9f                                | not ready to finish
 700 0916 6100 F726 	    jbsr       save_PC_to_fn_tbl_and_ret   
 701 091a 0C39 000E 	    cmp.b     #0x0e,(scroll_cntr)               | MSB
 701      0000 0000 
 702 0922 6636      	    jne     9f                                | not finished
 703 0924 3039 0000 	    move.w    (area),d0
 703      0000 
68K GAS  src/xevious_sub.68k 			page 20


 704               	    .ifeq OPT_LOOP_AREA
 705 092a 5240      	    addq.w    #1,d0                             | inc area
 706               	    .endif
 707 092c 0C40 0010 	    cmp.w     #16,d0                            | last area?
 708 0930 6604      	    jne     1f                                | no, skip
 709 0932 303C 0006 	    move.w    #6,d0                             | restart at area 7
 710 0936 33C0 0000 	1:  move.w    d0,(area)                         | update area
 710      0000 
 711 093c 41FA 001E 	    lea       area_offset_in_map_tbl,a0
 712 0940 13F0 0000 	    move.b    (a0,d0.w),(area_offset_in_map)    | update offset
 712      0000 0000 
 713 0948 207A 00DE 		move.l	area_object_tbl_tbl_pointer(pc),a0
 714               		.ifdef		NO68020
 715 094c D040      	    add.w	    d0,d0                             | offset in table
 716 094e D040      	    add.w	    d0,d0                             | offset in table
 717 0950 23F0 0000 	    move.l    (a0,d0.w),(area_obj_ptr)          | new area ptr
 717      0000 0000 
 718               		.else
 719               		move.l	(a0,d0.w*4),(area_obj_ptr)
 720               		.endif
 721               	    *** show area on screen for debugging
 722               	    .ifne OPT_DISPLAY_AREA
 723               	    move.w    #0x0123,d0                        | screen col,row
 724               	    move.w    (area),d1
 725               	    addq.w    #1,d1
 726               	    moveq     #BANK_FG_VIDEORAM,d2
 727               	    jbsr       display_char
 728               	    .endif
 729 0958 60AE      	    jra     sub_fn_3__handle_next_area
 730 095a 4E75      	9:  rts
 731               	area_offset_in_map_tbl: | $07BD
 732 095c 2400 540E 	    .byte 0x24, 0, 0x54, 0xE, 0x40, 0x1A, 0x64, 4, 0x2A, 0x5C, 0xE, 4, 0x38, 0x54, 0x1A, 0
 732      401A 6404 
 732      2A5C 0E04 
 732      3854 1A00 
 733               	
 734               	* SUB CPU had a local copy of area_offset_in_map_tbl here
 735               	* - we don't need it for 68K target
 736               	            
 737               	sub_fn_6__display_1UP_2UP: | $07CD
 738 096c 4A39 0000 	    tst.b     (maincpu_inited)
 738      0000 
 739 0972 6750      	    jeq     9f
 740 0974 1639 0000 	    move.b    (countup_timer_1),d3
 740      0000 
 741 097a E80B      	    lsr.b     #4,d3
 742 097c 0203 0001 	    and.b     #1,d3                             | d3=bit4 of timer (Z80 B)
 743 0980 303C 1800 	    move.w    #0x1800,d0                        | col=24
 744 0984 323C 0500 	    move.w    #0x0500,d1                        | col=5
 745 0988 7C00      	    moveq     #0,d6
 746 098a 1C39 0000 	    move.b    (curr_player),d6                  | d6=player(0/1) (Z80 C)
 746      0000 
 747 0990 6702      	    jeq     1f                                | P1? yes, skip
 748 0992 C141      	    exg       d0,d1                             | swap cols
 749 0994 6130      	1:  jbsr     flash_1up_2up
 750 0996 C141      	    exg       d0,d1                             | swap cols
 751 0998 4A39 0000 	    tst.b     (two_player_game)                 | 2P?
68K GAS  src/xevious_sub.68k 			page 21


 751      0000 
 752 099e 6604      	    jne     2f                                | yes, go
 753 09a0 7C06      	    moveq     #6,d6
 754 09a2 6008      	    jra     3f    
 755 09a4 0A46 0001 	2:  eori.w    #1,d6                             | swap player
 756               	
 757               	display_1up_2up:
 758 09a8 CCFC 0003 	    mulu      #3,d6
 759 09ac 41FA 0030 	3:  lea       up_string_tbl,a0
 760 09b0 41F0 6000 	    lea       (d6.w,a0),a0                      | ptr string
 761 09b4 7200      	    moveq     #0,d1
 762 09b6 343C 0008 	    move.w    #BANK_FG_VIDEORAM,d2
 763 09ba 7E02      	    moveq     #3-1,d7
 764 09bc 1218      	4:  move.b    (a0)+,d1
 765 09be 6128      	    jbsr       display_char
 766 09c0 51CF FFFA 	    dbf       d7,4b
 767 09c4 4E75      	9:  rts
 768               	
 769               	flash_1up_2up:
 770 09c6 48E7 C200 	    movem.l   d0/d1/d6,-(a7)
 771 09ca C639 0000 	    and.b     (is_real_game),d3                 | timer for flashing
 771      0000 
 772 09d0 6704      	    jeq     1f
 773 09d2 1C3C 0002 	    move.b    #2,d6                             | 3rd string in table ("   ")
 774 09d6 61D0      	1:  jbsr       display_1up_2up   
 775 09d8 4CDF 0043 	    movem.l   (a7)+,d0/d1/d6
 776 09dc 4E75      	    rts
 777               	
 778               	up_string_tbl:  
 779 09de 011E 19   	    .byte 1, 0x1E, 0x19                         | "1UP"
 780 09e1 021E 19   	    .byte 2, 0x1E, 0x19                         | "2UP"
 781 09e4 2424 24   	    .byte 0x24, 0x24, 0x24                      | "   "
 782 09e7 00        	    .align 2
 783               	                
 784               	* d0=coffset (MSB=31-col,LSB=row) d1=char, d2=bank
 785               	* col is updated
 786               	display_char: | $0828
 787 09e8 48E7 A080 	    movem.l   d0/d2/a0,-(a7)
 788 09ec 6110      	    jbsr       calc_screen_addr
 789               	    *** lookup osd routine based on bank
 790               	    *** - can this be optimised?
 791 09ee 207B 2028 	    movea.l   (osd_w_video_bank_tbl,pc,d2.w),a0
 792 09f2 4E90      	    jsr       (a0)
 793 09f4 4CDF 0105 	    movem.l   (a7)+,d0/d2/a0
 794 09f8 0440 0100 	    sub.w     #0x0100,d0                        | next column
 795 09fc 4E75      	    rts
 796               	* d0=offset (MSB=31-col,LSB=row)
 797               	* d6 (trashed)
 798               	calc_screen_addr: | $0832
 799 09fe 0440 0100 	    sub.w     #0x0100,d0
 800 0a02 3C00      	    move.w    d0,d6
 801 0a04 5846      	    addq.w    #4,d6
 802 0a06 0246 003F 	    and.w     #0x003f,d6
 803 0a0a 0640 0300 	    add.w     #0x0300,d0
 804 0a0e E448      	    lsr.w     #2,d0
 805 0a10 0240 07C0 	    and.w     #0x07C0,d0
 806 0a14 8046      	    or.w      d6,d0
68K GAS  src/xevious_sub.68k 			page 22


 807 0a16 4E75      	    rts
 808               	    .align 4
 809               	osd_w_video_bank_tbl:
 810 0a18 0000 0000 	    .long     osd_w_fg_colorram
 811 0a1c 0000 0000 	    .long     osd_w_bg_colorram
 812 0a20 0000 0000 	    .long     osd_w_fg_videoram
 813 0a24 0000 0000 	    .long     osd_w_bg_videoram
 814               	*
 815               	* table of objects (ground and air based) in each area
 816               	* - for each table
 817               	*   - byte 0 : scroll counter value (row)
 818               	*   - byte 1 : handler fn tbl entry
 819               	*   - byte n : ???
 820               	* (different functions have different numbers of parameters
 821               	*  (bytes) in the table)
 822               	*
 823               	
 824               	area_object_tbl_tbl_pointer:
 825 0a28 0000 0000 		.long	0
 826               		
 827               	area_object_tbl_tbl_normal:| $1000
 828 0a2c 0000 0000 	    .long area_1_obj_tbl_normal
 829 0a30 0000 0000 	    .long area_2_obj_tbl_normal
 830 0a34 0000 0000 	    .long area_3_obj_tbl_normal
 831 0a38 0000 0000 	    .long area_4_obj_tbl_normal
 832 0a3c 0000 0000 	    .long area_5_obj_tbl_normal
 833 0a40 0000 0000 	    .long area_6_obj_tbl_normal
 834 0a44 0000 0000 	    .long area_7_obj_tbl_normal
 835 0a48 0000 0000 	    .long area_8_obj_tbl_normal
 836 0a4c 0000 0000 	    .long area_9_obj_tbl_normal
 837 0a50 0000 0000 	    .long area_10_obj_tbl_normal
 838 0a54 0000 0000 	    .long area_11_obj_tbl_normal
 839 0a58 0000 0000 	    .long area_12_obj_tbl_normal
 840 0a5c 0000 0000 	    .long area_13_obj_tbl_normal
 841 0a60 0000 0000 	    .long area_14_obj_tbl_normal
 842 0a64 0000 0000 	    .long area_15_obj_tbl_normal
 843 0a68 0000 0000 	    .long area_16_obj_tbl_normal
 844               		
 845               	area_object_tbl_tbl_super:| $1000
 846 0a6c 0000 0000 	    .long area_1_obj_tbl_super
 847 0a70 0000 0000 	    .long area_2_obj_tbl_super
 848 0a74 0000 0000 	    .long area_3_obj_tbl_super
 849 0a78 0000 0000 	    .long area_4_obj_tbl_super
 850 0a7c 0000 0000 	    .long area_5_obj_tbl_super
 851 0a80 0000 0000 	    .long area_6_obj_tbl_super
 852 0a84 0000 0000 	    .long area_7_obj_tbl_super
 853 0a88 0000 0000 	    .long area_8_obj_tbl_super
 854 0a8c 0000 0000 	    .long area_9_obj_tbl_super
 855 0a90 0000 0000 	    .long area_10_obj_tbl_super
 856 0a94 0000 0000 	    .long area_11_obj_tbl_super
 857 0a98 0000 0000 	    .long area_12_obj_tbl_super
 858 0a9c 0000 0000 	    .long area_13_obj_tbl_super
 859 0aa0 0000 0000 	    .long area_14_obj_tbl_super
 860 0aa4 0000 0000 	    .long area_15_obj_tbl_super
 861 0aa8 0000 0000 	    .long area_16_obj_tbl_super
 862               	    
 863               	area_1_obj_tbl_normal:
68K GAS  src/xevious_sub.68k 			page 23


 864 0aac 0C53 000C 	    .byte 0xC, 0x53, 0, 0xC, 0xFF, 0x24, 0xF, 0xFF, 0x25, 0xFF, 0xFF, 0x28, 0x12, 0xFF, 0x29, 0x1F
 864      FF24 0FFF 
 864      25FF FF28 
 864      12FF 291F 
 865 0abc FE2A 07FE 	    .byte 0xFE, 0x2A, 7, 0xFE, 0x2F, 0x1F, 0xFE, 0x30, 0x1F, 0xFE, 0x2B, 7, 0xFD, 3, 0xEB, 3
 865      2F1F FE30 
 865      1FFE 2B07 
 865      FD03 EB03 
 866 0acc D703 D61E 	    .byte 0xD7, 3, 0xD6, 0x1E, 4, 0x80, 0xD6, 0x1F, 6, 0x70, 0xC3, 5, 0xB7, 3, 0xB6, 0x1E
 866      0480 D61F 
 866      0670 C305 
 866      B703 B61E 
 867 0adc 0880 B626 	    .byte 8, 0x80, 0xB6, 0x26, 0xA, 0x70, 0xAB, 0x1E, 0xC, 0x58, 0xA9, 0x26, 0xE, 0x58, 0xA1, 0x1F
 867      0A70 AB1E 
 867      0C58 A926 
 867      0E58 A11F 
 868 0aec 1040 9F26 	    .byte 0x10, 0x40, 0x9F, 0x26, 0x12, 0x50, 0x9F, 5, 0x9B, 0x57, 0x9B, 0x57, 0x93, 3, 0x83, 3
 868      1250 9F05 
 868      9B57 9B57 
 868      9303 8303 
 869 0afc 7A26 1470 	    .byte 0x7A, 0x26, 0x14, 0x70, 0x78, 0x1F, 0x16, 0x70, 0x73, 3, 0x69, 0x1D, 0x18, 0x20, 0x61, 0x
 869      781F 1670 
 869      7303 691D 
 869      1820 612C 
 870 0b0c 1A5A 6025 	    .byte 0x1A, 0x5A, 0x60, 0x25, 0x1F, 0x5F, 0x57, 0x5F, 0x57, 0x5E, 0x2C, 0x1C, 0x5A, 0x5B, 0x2C,
 870      1F5F 575F 
 870      575E 2C1C 
 870      5A5B 2C1E 
 871 0b1c 5A5B 0353 	    .byte 0x5A, 0x5B, 3, 0x53, 3, 0x47, 3, 0x44, 0x54, 0, 0x3C, 0x1E, 4, 0x60, 0x3C, 0x26
 871      0347 0344 
 871      5400 3C1E 
 871      0460 3C26 
 872 0b2c 0670 3B02 	    .byte 6, 0x70, 0x3B, 2, 3, 0x27, 0x1F, 8, 0x28, 0x25, 0x26, 0xA, 0x38, 0x23, 0x1F, 0xC
 872      0327 1F08 
 872      2825 260A 
 872      3823 1F0C 
 873 0b3c 4823 260E 	    .byte 0x48, 0x23, 0x26, 0xE, 0xC0, 0x21, 0x26, 0x10, 0x58, 0x1F, 0x1F, 0x12, 0x68, 0x17, 5, 0x1
 873      C021 2610 
 873      581F 1F12 
 873      6817 0517 
 874 0b4c 1D14 D015 	    .byte 0x1D, 0x14, 0xD0, 0x15, 0x2D, 0x16, 0x68, 0xD
 874      2D16 680D 
 875               	    
 876               	area_2_obj_tbl_normal:
 877 0b54 FF02 01EF 	    .byte 0xFF, 2, 1, 0xEF, 5, 0xE7, 0x2E, 4, 0x9C, 3, 0x40, 0, 0x38, 0x1C, 0xFF, 0x18
 877      05E7 2E04 
 877      9C03 4000 
 877      381C FF18 
 878 0b64 DD26 0670 	    .byte 0xDD, 0x26, 6, 0x70, 0xDD, 0x1E, 8, 0x60, 0xD3, 0x1F, 0xA, 0xD0, 0xD3, 0x26, 0xC, 0xC0
 878      DD1E 0860 
 878      D31F 0AD0 
 878      D326 0CC0 
 879 0b74 C926 0E70 	    .byte 0xC9, 0x26, 0xE, 0x70, 0xC9, 0x26, 0x10, 0x60, 0xC3, 3, 0xBB, 0x2E, 0x12, 0x94, 3, 0x68
 879      C926 1060 
 879      C303 BB2E 
 879      1294 0368 
 880 0b84 0020 02FF 	    .byte 0, 0x20, 2, 0xFF, 0, 0xB3, 0x26, 0x14, 0x68, 0xB3, 5, 0xA7, 0x2E, 0x16, 0x94, 3
68K GAS  src/xevious_sub.68k 			page 24


 880      00B3 2614 
 880      68B3 05A7 
 880      2E16 9403 
 881 0b94 5800 C018 	    .byte 0x58, 0, 0xC0, 0x18, 0xFF, 0, 0xA3, 0x26, 0x18, 0x70, 0xA3, 0x1F, 0x1A, 0x60, 0xA3, 3
 881      FF00 A326 
 881      1870 A31F 
 881      1A60 A303 
 882 0ba4 9526 1C68 	    .byte 0x95, 0x26, 0x1C, 0x68, 0x93, 3, 0x83, 5, 0x79, 0x1F, 0x1E, 0xD0, 0x6F, 0x26, 4, 0x70
 882      9303 8305 
 882      791F 1ED0 
 882      6F26 0470 
 883 0bb4 6F1F 0660 	    .byte 0x6F, 0x1F, 6, 0x60, 0x6D, 0x1F, 8, 0x70, 0x6D, 0x26, 0xA, 0x60, 0x67, 0x1D, 0xC, 0x20
 883      6D1F 0870 
 883      6D26 0A60 
 883      671D 0C20 
 884 0bc4 672E 0ED8 	    .byte 0x67, 0x2E, 0xE, 0xD8, 4, 0x48, 0x1C, 0x50, 0, 0x20, 0x1C, 0xFF, 0, 0x5B, 3, 0x4B
 884      0448 1C50 
 884      0020 1CFF 
 884      005B 034B 
 885 0bd4 0547 2E10 	    .byte 5, 0x47, 0x2E, 0x10, 0xA4, 4, 8, 0, 0x50, 8, 0x60, 0, 0xC0, 2, 0x44, 0x2E
 885      A404 0800 
 885      5008 6000 
 885      C002 442E 
 886 0be4 1234 0378 	    .byte 0x12, 0x34, 3, 0x78, 0, 0xA8, 4, 0xC0, 6, 0x3E, 0x1D, 0x14, 0x70, 0x39, 0x1F, 0x16
 886      00A8 04C0 
 886      063E 1D14 
 886      7039 1F16 
 887 0bf4 D039 2618 	    .byte 0xD0, 0x39, 0x26, 0x18, 0xC0, 0x33, 3, 0x27, 0x1E, 0x1A, 0x90, 0x25, 0x1F, 0x1C, 0x80, 0x
 887      C033 0327 
 887      1E1A 9025 
 887      1F1C 8025 
 888 0c04 2E1E 6002 	    .byte 0x2E, 0x1E, 0x60, 2, 0x90, 4, 0xC0, 8, 0x23, 0x1E, 4, 0x70, 0x23, 5, 0x21, 0x1F
 888      9004 C008 
 888      231E 0470 
 888      2305 211F 
 889 0c14 0660 1F1E 	    .byte 6, 0x60, 0x1F, 0x1E, 8, 0x50, 0x1C, 0x28, 0x18, 0x1B, 2, 1, 0x17, 0x26, 0xA, 0xA0
 889      0850 1C28 
 889      181B 0201 
 889      1726 0AA0 
 890 0c24 1726 0C90 	    .byte 0x17, 0x26, 0xC, 0x90, 0x15, 5, 0x13, 0x1F, 0xE, 0xB0, 0x13, 0x1B, 0x10, 0xA0, 0x13, 0x1B
 890      1505 131F 
 890      0EB0 131B 
 890      10A0 131B 
 891 0c34 1290 131F 	    .byte 0x12, 0x90, 0x13, 0x1F, 0x14, 0x80, 0xD
 891      1480 0D
 892               	
 893               	area_3_obj_tbl_normal:
 894 0c3b FF22 04FF 	    .byte 0xFF, 0x22, 4, 0xFF, 0x28, 0x14, 0xEF, 0x1F, 0x16, 0x40, 0xE4, 0x22, 2, 0xBD, 0x26, 0x18
 894      2814 EF1F 
 894      1640 E422 
 894      02BD 2618 
 895 0c4b A0BB 1F1A 	    .byte 0xA0, 0xBB, 0x1F, 0x1A, 0xA0, 0xB8, 0x22, 2, 0xA3, 0x20, 0x1C, 0xC0, 0x9F, 0x1D, 4, 0xE0
 895      A0B8 2202 
 895      A320 1CC0 
 895      9F1D 04E0 
 896 0c5b 930F 7491 	    .byte 0x93, 0xF, 0x74, 0x91, 0x26, 6, 0x80, 0x8F, 0x1E, 8, 0x80, 0x8C, 0x54, 0, 0x87, 0x1E
 896      2606 808F 
68K GAS  src/xevious_sub.68k 			page 25


 896      1E08 808C 
 896      5400 871E 
 897 0c6b 0A90 871F 	    .byte 0xA, 0x90, 0x87, 0x1F, 0xC, 0x80, 0x83, 0x23, 0x83, 0x57, 0x7B, 3, 0x6B, 0x1F, 0xE, 0xD0
 897      0C80 8323 
 897      8357 7B03 
 897      6B1F 0ED0 
 898 0c7b 6B26 10A0 	    .byte 0x6B, 0x26, 0x10, 0xA0, 0x63, 5, 0x63, 0x26, 0x12, 0x60, 0x5B, 0x1F, 0x14, 0x60, 0x57, 0x
 898      6305 6326 
 898      1260 5B1F 
 898      1460 5736 
 899 0c8b 1678 5703 	    .byte 0x16, 0x78, 0x57, 3, 0x4B, 0x57, 0x49, 0x1F, 0x18, 0xD0, 0x49, 0x26, 0x1A, 0xA0, 0x43, 3
 899      4B57 491F 
 899      18D0 4926 
 899      1AA0 4303 
 900 0c9b 361E 1CC0 	    .byte 0x36, 0x1E, 0x1C, 0xC0, 0x36, 0x26, 0x1E, 0xA8, 0x36, 0x1F, 4, 0x90, 0x36, 0x1E, 6, 0x78
 900      3626 1EA8 
 900      361F 0490 
 900      361E 0678 
 901 0cab 2C1F 0890 	    .byte 0x2C, 0x1F, 8, 0x90, 0x2B, 5, 0x1F, 0x1F, 0xA, 0x80, 0x1F, 0x26, 0xC, 0x60, 0x1F, 0x1F
 901      2B05 1F1F 
 901      0A80 1F26 
 901      0C60 1F1F 
 902 0cbb 0E40 1824 	    .byte 0xE, 0x40, 0x18, 0x24, 3, 0x17, 0x21, 0x10, 0x60, 0x17, 0x1D, 0x14, 0x20, 0xD
 902      0317 2110 
 902      6017 1D14 
 902      200D 
 903               	    
 904               	area_4_obj_tbl_normal:
 905 0cc9 FF02 01F0 	    .byte 0xFF, 2, 1, 0xF0, 5, 0xED, 0x2E, 0x16, 0x9C, 3, 0xA0, 0, 0x80, 0x10, 0x80, 0
 905      05ED 2E16 
 905      9C03 A000 
 905      8010 8000 
 906 0cd9 E32E 182C 	    .byte 0xE3, 0x2E, 0x18, 0x2C, 2, 0x90, 0, 0x80, 0x1C, 0xDB, 0x1E, 0x1A, 0x60, 0xDB, 0x1F, 0x1C
 906      0290 0080 
 906      1CDB 1E1A 
 906      60DB 1F1C 
 907 0ce9 50D1 2E1E 	    .byte 0x50, 0xD1, 0x2E, 0x1E, 0x7C, 3, 0x38, 0, 0x80, 2, 0xC0, 0, 0xCB, 3, 0xC5, 0x26
 907      7C03 3800 
 907      8002 C000 
 907      CB03 C526 
 908 0cf9 04B0 C51F 	    .byte 4, 0xB0, 0xC5, 0x1F, 6, 0xA0, 0xC5, 0x1D, 8, 0x60, 0xBD, 0x2E, 0xA, 0x24, 3, 0x48
 908      06A0 C51D 
 908      0860 BD2E 
 908      0A24 0348 
 909 0d09 0028 02FF 	    .byte 0, 0x28, 2, 0xFF, 0, 0xBB, 5, 0xAF, 0x1F, 0xC, 0x50, 0xAD, 0x1F, 0xE, 0x40, 0xAA
 909      00BB 05AF 
 909      1F0C 50AD 
 909      1F0E 40AA 
 910 0d19 2610 50A7 	    .byte 0x26, 0x10, 0x50, 0xA7, 0x26, 0x12, 0x40, 0xA7, 0x2E, 0x14, 0x24, 4, 0x60, 0, 0xD8, 0x10
 910      2612 40A7 
 910      2E14 2404 
 910      6000 D810 
 911 0d29 2808 FF02 	    .byte 0x28, 8, 0xFF, 2, 0x9F, 3, 0x8B, 5, 0x87, 0x22, 1, 0x83, 0x23, 0x73, 2, 0x45
 911      9F03 8B05 
 911      8722 0183 
 911      2373 0245 
 912 0d39 734E 2F73 	    .byte 0x73, 0x4E, 0x2F, 0x73, 0x4C, 0x63, 5, 0x5F, 2, 0x45, 0x4F, 5, 0x3F, 0x22, 4, 0x33
68K GAS  src/xevious_sub.68k 			page 26


 912      4C63 055F 
 912      0245 4F05 
 912      3F22 0433 
 913 0d49 2331 232B 	    .byte 0x23, 0x31, 0x23, 0x2B, 0x23, 0x2B, 0x57, 0x28, 3, 0x20, 0x4D, 0x20, 3, 0x10, 3, 0xD
 913      232B 5728 
 913      0320 4D20 
 913      0310 030D 
 914               	    
 915               	area_5_obj_tbl_normal:
 916 0d59 FF24 07FF 	    .byte 0xFF, 0x24, 7, 0xFF, 0x2F, 0xF, 0xFE, 0x30, 0xF, 0xFE, 0x28, 0x1C, 0xFD, 3, 0xEF, 3
 916      2F0F FE30 
 916      0FFE 281C 
 916      FD03 EF03 
 917 0d69 E357 E305 	    .byte 0xE3, 0x57, 0xE3, 5, 0xDD, 0x1F, 4, 0xA0, 0xDD, 0x1E, 6, 0x90, 0xDB, 0x21, 8, 0x70
 917      DD1F 04A0 
 917      DD1E 0690 
 917      DB21 0870 
 918 0d79 DB1E 0CA0 	    .byte 0xDB, 0x1E, 0xC, 0xA0, 0xDB, 0x1F, 0xE, 0x90, 0xD1, 0x3D, 0x10, 0xC0, 0xCB, 3, 0xBF, 0x3E
 918      DB1F 0E90 
 918      D13D 10C0 
 918      CB03 BF3E 
 919 0d89 12A0 BB03 	    .byte 0x12, 0xA0, 0xBB, 3, 0xBB, 0x3E, 0x14, 0x60, 0xB7, 0x3E, 0x16, 0xA0, 0xB3, 3, 0xB3, 0x3F
 919      BB3E 1460 
 919      B73E 16A0 
 919      B303 B33F 
 920 0d99 1860 AF3F 	    .byte 0x18, 0x60, 0xAF, 0x3F, 0x1A, 0x20, 0xA7, 5, 0xA5, 0x21, 0x1C, 0x68, 0x9B, 0x3E, 4, 0x40
 920      1A20 A705 
 920      A521 1C68 
 920      9B3E 0440 
 921 0da9 973E 0680 	    .byte 0x97, 0x3E, 6, 0x80, 0x95, 0x3E, 8, 0xA0, 0x93, 0x3E, 0xA, 0xC0, 0x93, 3, 0x7B, 5
 921      953E 08A0 
 921      933E 0AC0 
 921      9303 7B05 
 922 0db9 7B54 0071 	    .byte 0x7B, 0x54, 0, 0x71, 0x2E, 0xC, 0x60, 0xC, 0x30, 0, 0x30, 0x10, 0x30, 0x18, 0x30, 8
 922      2E0C 600C 
 922      3000 3010 
 922      3018 3008 
 923 0dc9 3000 3010 	    .byte 0x30, 0, 0x30, 0x10, 0x30, 0x18, 0x30, 8, 0x30, 0, 0x30, 0x10, 0x30, 0x18, 0x30, 8
 923      3018 3008 
 923      3000 3010 
 923      3018 3008 
 924 0dd9 711D 0E20 	    .byte 0x71, 0x1D, 0xE, 0x20, 0x70, 0x25, 0xF, 0x70, 0x24, 0xF, 0x6B, 0x1E, 0x10, 0x80, 0x69, 0x
 924      7025 0F70 
 924      240F 6B1E 
 924      1080 6926 
 925 0de9 1280 671E 	    .byte 0x12, 0x80, 0x67, 0x1E, 0x14, 0x80, 0x65, 0x26, 0x16, 0x80, 0x63, 3, 0x4B, 5, 0x4B, 0x1F
 925      1480 6526 
 925      1680 6303 
 925      4B05 4B1F 
 926 0df9 18C0 3F03 	    .byte 0x18, 0xC0, 0x3F, 3, 0x35, 0x1F, 0x1A, 0x80, 0x32, 0x2E, 0x1C, 0xD8, 3, 0xC0, 0x18, 0x18
 926      351F 1A80 
 926      322E 1CD8 
 926      03C0 1818 
 927 0e09 10C0 0831 	    .byte 0x10, 0xC0, 8, 0x31, 0x1D, 0x1E, 0x40, 0x2F, 5, 0x23, 0x2E, 4, 0xC0, 1, 0xC0, 0x18
 927      1D1E 402F 
 927      0523 2E04 
 927      C001 C018 
68K GAS  src/xevious_sub.68k 			page 27


 928 0e19 202E 0620 	    .byte 0x20, 0x2E, 6, 0x20, 1, 0xC0, 8, 0x1D, 0x2E, 8, 0xC0, 1, 0xC0, 0x18, 0x17, 0x1F
 928      01C0 081D 
 928      2E08 C001 
 928      C018 171F 
 929 0e29 0AC0 1721 	    .byte 0xA, 0xC0, 0x17, 0x21, 0xC, 0x80, 0x17, 0x1F, 0x10, 0x40, 0xD
 929      0C80 171F 
 929      1040 0D
 930               	    
 931               	area_6_obj_tbl_normal:
 932 0e34 FF24 07F3 	    .byte 0xFF, 0x24, 7, 0xF3, 0x26, 4, 0xC0, 0xF3, 0x1E, 6, 0xB0, 0xEB, 0x2E, 8, 0x3C, 3
 932      2604 C0F3 
 932      1E06 B0EB 
 932      2E08 3C03 
 933 0e44 C000 C010 	    .byte 0xC0, 0, 0xC0, 0x10, 0xC0, 0, 0xDB, 0x2E, 0xA, 0x34, 2, 0x20, 2, 0xFF, 0, 0xD7
 933      C000 DB2E 
 933      0A34 0220 
 933      02FF 00D7 
 934 0e54 1F0C C0D5 	    .byte 0x1F, 0xC, 0xC0, 0xD5, 0x26, 0xE, 0xD0, 0xD5, 0x30, 0xFF, 0xCB, 0x2E, 0x10, 0x1C, 3, 0x98
 934      260E D0D5 
 934      30FF CB2E 
 934      101C 0398 
 935 0e64 0080 0240 	    .byte 0, 0x80, 2, 0x40, 0, 0xBB, 0x2E, 0x12, 0x1C, 1, 0xFF, 0, 0xB6, 0x1E, 0x14, 0xC0
 935      00BB 2E12 
 935      1C01 FF00 
 935      B61E 14C0 
 936 0e74 B626 16D0 	    .byte 0xB6, 0x26, 0x16, 0xD0, 0xB4, 0x30, 0xF, 0xAA, 0x1F, 0x18, 0xB0, 0xAA, 0x1F, 0x1A, 0xA0, 
 936      B430 0FAA 
 936      1F18 B0AA 
 936      1F1A A09F 
 937 0e84 211C A09B 	    .byte 0x21, 0x1C, 0xA0, 0x9B, 3, 0x8B, 0x1D, 4, 0x30, 0x83, 5, 0x77, 0x2D, 6, 0xC0, 0x6F
 937      038B 1D04 
 937      3083 0577 
 937      2D06 C06F 
 938 0e94 3A10 486B 	    .byte 0x3A, 0x10, 0x48, 0x6B, 0x38, 0x12, 0x60, 0x6B, 0x38, 0x14, 0x30, 0x67, 0x38, 0x16, 0x48,
 938      3812 606B 
 938      3814 3067 
 938      3816 485F 
 939 0ea4 1F18 805D 	    .byte 0x1F, 0x18, 0x80, 0x5D, 0x26, 0x1A, 0x70, 0x56, 0x2E, 0x1C, 0x14, 0xB, 0x40, 0, 0x38, 4
 939      261A 7056 
 939      2E1C 140B 
 939      4000 3804 
 940 0eb4 5006 3804 	    .byte 0x50, 6, 0x38, 4, 0x3C, 8, 0x30, 4, 0x20, 0, 0x20, 0x10, 0x20, 0, 0x20, 0x10
 940      3C08 3004 
 940      2000 2010 
 940      2000 2010 
 941 0ec4 2000 5526 	    .byte 0x20, 0, 0x55, 0x26, 0x1E, 0x70, 0x4F, 0x26, 4, 0x80, 0x4F, 0x1D, 6, 0xD0, 0x48, 0x2E
 941      1E70 4F26 
 941      0480 4F1D 
 941      06D0 482E 
 942 0ed4 08D8 0308 	    .byte 8, 0xD8, 3, 8, 0, 0x58, 0x18, 0xFF, 0, 0x41, 0x2E, 0xA, 0x48, 2, 0x78, 0
 942      0058 18FF 
 942      0041 2E0A 
 942      4802 7800 
 943 0ee4 FF08 331F 	    .byte 0xFF, 8, 0x33, 0x1F, 0xC, 0x70, 0x27, 0x26, 0xE, 0x70, 0x25, 0x26, 0x10, 0x90, 0x23, 0x26
 943      0C70 2726 
 943      0E70 2526 
 943      1090 2326 
68K GAS  src/xevious_sub.68k 			page 28


 944 0ef4 12B0 1721 	    .byte 0x12, 0xB0, 0x17, 0x21, 0x14, 0xC0, 0x17, 0x21, 0x18, 0xA0, 0xD
 944      14C0 1721 
 944      18A0 0D
 945               	    
 946               	area_7_obj_tbl_normal:
 947 0eff FF22 08F1 	    .byte 0xFF, 0x22, 8, 0xF1, 0x1F, 4, 0x80, 0xEF, 0x1E, 6, 0x80, 0xED, 0x22, 3, 0xCA, 0x30
 947      1F04 80EF 
 947      1E06 80ED 
 947      2203 CA30 
 948 0f0f 3FC9 2E08 	    .byte 0x3F, 0xC9, 0x2E, 8, 0x70, 6, 0x60, 0xC, 0x60, 0x10, 0x60, 0x14, 0x60, 0x1C, 0x60, 0
 948      7006 600C 
 948      6010 6014 
 948      601C 6000 
 949 0f1f 6004 C62E 	    .byte 0x60, 4, 0xC6, 0x2E, 0xA, 0x58, 6, 0x30, 4, 0x60, 0xC, 0x60, 0x10, 0x60, 0x14, 0x60
 949      0A58 0630 
 949      0460 0C60 
 949      1060 1460 
 950 0f2f 1C60 00C3 	    .byte 0x1C, 0x60, 0, 0xC3, 0x2E, 0xC, 0x40, 6, 0x60, 4, 0x60, 0xC, 0x60, 0x10, 0x60, 0x14
 950      2E0C 4006 
 950      6004 600C 
 950      6010 6014 
 951 0f3f 601C 6000 	    .byte 0x60, 0x1C, 0x60, 0, 0xC0, 0x2E, 0xE, 0x40, 6, 0x30, 0, 0x60, 4, 0x60, 0xC, 0x60
 951      C02E 0E40 
 951      0630 0060 
 951      0460 0C60 
 952 0f4f 1060 1460 	    .byte 0x10, 0x60, 0x14, 0x60, 0x1C, 0xBD, 0x2E, 0x10, 0x40, 6, 0x60, 0, 0x60, 4, 0x60, 0xC
 952      1CBD 2E10 
 952      4006 6000 
 952      6004 600C 
 953 0f5f 6010 6014 	    .byte 0x60, 0x10, 0x60, 0x14, 0x60, 0x1C, 0xBA, 0x2E, 0x12, 0x58, 7, 0x30, 0x1C, 0x60, 0, 0x60
 953      601C BA2E 
 953      1258 0730 
 953      1C60 0060 
 954 0f6f 0460 0C60 	    .byte 4, 0x60, 0xC, 0x60, 0x10, 0x60, 0x14, 0x60, 0x1C, 0xA7, 0x2F, 7, 0xA1, 0x1E, 0x14, 0x70
 954      1060 1460 
 954      1CA7 2F07 
 954      A11E 1470 
 955 0f7f 9F26 1660 	    .byte 0x9F, 0x26, 0x16, 0x60, 0x9E, 0x22, 2, 0x9D, 0x1F, 0x18, 0x50, 0x9B, 0x1E, 0x1A, 0x40, 0x
 955      9E22 029D 
 955      1F18 509B 
 955      1E1A 4083 
 956 0f8f 1074 8126 	    .byte 0x10, 0x74, 0x81, 0x26, 0x1C, 0x40, 0x7B, 0x1D, 0x1E, 0xD8, 0x6C, 0x23, 0x6B, 0x1E, 4, 0x
 956      1C40 7B1D 
 956      1ED8 6C23 
 956      6B1E 04B0 
 957 0f9f 6B1F 0680 	    .byte 0x6B, 0x1F, 6, 0x80, 0x6B, 0x1E, 8, 0x50, 0x6B, 0x1F, 0xA, 0x20, 0x66, 0x54, 0, 0x4F
 957      6B1E 0850 
 957      6B1F 0A20 
 957      6654 004F 
 958 0faf 2210 361F 	    .byte 0x22, 0x10, 0x36, 0x1F, 0xC, 0x48, 0x36, 0x1F, 0xE, 0x20, 0x2B, 0x3B, 0x10, 0xC0, 0x27, 0
 958      0C48 361F 
 958      0E20 2B3B 
 958      10C0 273C 
 959 0fbf 12A0 1711 	    .byte 0x12, 0xA0, 0x17, 0x11, 0x76, 0x11, 0x1D, 0x14, 0x20, 0xF, 0x23, 0xD
 959      7611 1D14 
 959      200F 230D 
 960               	    
68K GAS  src/xevious_sub.68k 			page 29


 961               	area_8_obj_tbl_normal:
 962 0fcb F303 F330 	    .byte 0xF3, 3, 0xF3, 0x30, 0xFF, 0xF3, 0x57, 0xEE, 0x2E, 4, 0x14, 5, 8, 0, 0xA0, 8
 962      FFF3 57EE 
 962      2E04 1405 
 962      0800 A008 
 963 0fdb 300C FF10 	    .byte 0x30, 0xC, 0xFF, 0x10, 0xFF, 0, 0xEA, 5, 0xE5, 0x26, 6, 0x30, 0xE5, 0x26, 8, 0xC8
 963      FF00 EA05 
 963      E526 0630 
 963      E526 08C8 
 964 0feb E21F 0A48 	    .byte 0xE2, 0x1F, 0xA, 0x48, 0xE2, 0x1F, 0xC, 0xB0, 0xDF, 0x26, 0xE, 0x60, 0xDF, 0x26, 0x10, 0x
 964      E21F 0CB0 
 964      DF26 0E60 
 964      DF26 1098 
 965 0ffb CC1E 1240 	    .byte 0xCC, 0x1E, 0x12, 0x40, 0xC8, 0x26, 0x14, 0x60, 0xC8, 0x26, 0x16, 0x20, 0xC7, 0x21, 0x18,
 965      C826 1460 
 965      C826 1620 
 965      C721 1848 
 966 100b C31E 1C40 	    .byte 0xC3, 0x1E, 0x1C, 0x40, 0xBB, 0x57, 0xB3, 0x1F, 0x1E, 0x48, 0xA8, 3, 0xA5, 0x2E, 4, 0xA0
 966      BB57 B31F 
 966      1E48 A803 
 966      A52E 04A0 
 967 101b 02B0 0280 	    .byte 2, 0xB0, 2, 0x80, 0, 0xA5, 0x2E, 6, 0x74, 4, 0x78, 0, 0x50, 0x18, 0x50, 8
 967      00A5 2E06 
 967      7404 7800 
 967      5018 5008 
 968 102b 8000 A52E 	    .byte 0x80, 0, 0xA5, 0x2E, 8, 0x14, 4, 0x78, 0, 0x50, 8, 0x50, 0x18, 0x80, 0, 0x9B
 968      0814 0478 
 968      0050 0850 
 968      1880 009B 
 969 103b 0593 2E0A 	    .byte 5, 0x93, 0x2E, 0xA, 0x7C, 5, 0xA0, 0, 0xF0, 0x10, 0x30, 0xF, 0x30, 0x1F, 0x80, 0
 969      7C05 A000 
 969      F010 300F 
 969      301F 8000 
 970 104b 931F 0C50 	    .byte 0x93, 0x1F, 0xC, 0x50, 0x93, 0x26, 0xE, 0x40, 0x93, 0x2E, 0x10, 0x14, 3, 0xAC, 0, 0xFF
 970      9326 0E40 
 970      932E 1014 
 970      03AC 00FF 
 971 105b 1080 0083 	    .byte 0x10, 0x80, 0, 0x83, 3, 0x7F, 0x2E, 0x12, 0x84, 7, 0x50, 0, 0xC0, 0x10, 0x50, 0x10
 971      037F 2E12 
 971      8407 5000 
 971      C010 5010 
 972 106b 280B 5010 	    .byte 0x28, 0xB, 0x50, 0x10, 0x70, 0xC, 0x60, 0xD, 0x77, 0x1D, 0x14, 0xD0, 0x73, 5, 0x73, 0x26
 972      700C 600D 
 972      771D 14D0 
 972      7305 7326 
 973 107b 0458 731F 	    .byte 4, 0x58, 0x73, 0x1F, 6, 0x48, 0x6D, 0x2E, 0x16, 0x14, 1, 0x80
 973      0648 6D2E 
 973      1614 0180 
 974 1087 006A 2E18 	    .byte 0, 0x6A, 0x2E, 0x18, 0x14, 1, 0x80, 0, 0x67, 0x2E, 0x1A, 0x14, 1, 0x80, 0, 0x64
 974      1401 8000 
 974      672E 1A14 
 974      0180 0064 
 975 1097 351C 1461 	    .byte 0x35, 0x1C, 0x14, 0x61, 0x35, 0x1E, 0x14, 0x47, 0x2E, 8, 0x80, 6, 8, 0, 0x58, 8
 975      351E 1447 
 975      2E08 8006 
 975      0800 5808 
 976 10a7 6000 6002 	    .byte 0x60, 0, 0x60, 2, 0x80, 0, 0x60, 4, 0x47, 0x2E, 0xA, 0x68, 8, 8, 0, 0x88
68K GAS  src/xevious_sub.68k 			page 30


 976      8000 6004 
 976      472E 0A68 
 976      0808 0088 
 977 10b7 0860 0060 	    .byte 8, 0x60, 0, 0x60, 0x1C, 0x38, 0, 0x18, 0x12, 0xA8, 0x14, 0x80, 0, 0x47, 0x2E, 0xC
 977      1C38 0018 
 977      12A8 1480 
 977      0047 2E0C 
 978 10c7 5003 0800 	    .byte 0x50, 3, 8, 0, 0x78, 0x18, 0x80, 0, 0x37, 0x1B, 0xE, 0xB8, 0x37, 0x1B, 0x10, 0x48
 978      7818 8000 
 978      371B 0EB8 
 978      371B 1048 
 979 10d7 272E 1250 	    .byte 0x27, 0x2E, 0x12, 0x50, 2, 0x68, 4, 0xE0, 8, 0x24, 0x2E, 0x14, 0x38, 2, 0x98, 4
 979      0268 04E0 
 979      0824 2E14 
 979      3802 9804 
 980 10e7 E008 212E 	    .byte 0xE0, 8, 0x21, 0x2E, 0x16, 0x20, 2, 0xC8, 4, 0xE0, 8, 0x1F, 0x2E, 0x18, 0x90, 3
 980      1620 02C8 
 980      04E0 081F 
 980      2E18 9003 
 981 10f7 081C E000 	    .byte 8, 0x1C, 0xE0, 0, 0xD0, 8, 0x1C, 0x2E, 0x1A, 0xA8, 3, 0x38, 0x1C, 0xE0, 0, 0xD0
 981      D008 1C2E 
 981      1AA8 0338 
 981      1CE0 00D0 
 982 1107 0819 2E1C 	    .byte 8, 0x19, 0x2E, 0x1C, 0xC0, 3, 0x68, 0x1C, 0xE0, 0, 0xD0, 8, 0x19, 0x1F, 0x1E, 0x88
 982      C003 681C 
 982      E000 D008 
 982      191F 1E88 
 983 1117 191F 0468 	    .byte 0x19, 0x1F, 4, 0x68, 0x19, 0x1F, 6, 0x48, 0x13, 0x1B, 8, 0x88, 0x13, 0x1B, 0xC, 0x48
 983      191F 0648 
 983      131B 0888 
 983      131B 0C48 
 984 1127 0D        	    .byte 0xD
 985               	    
 986               	area_9_obj_tbl_normal:
 987 1128 FB02 1FF5 	    .byte 0xFB, 2, 0x1F, 0xF5, 0x1D, 0x10, 0xA0, 0xF3, 0x1D, 0x12, 0x80, 0xF1, 0x1D, 0x14, 0x60, 0x
 987      1D10 A0F3 
 987      1D12 80F1 
 987      1D14 60EF 
 988 1138 1D16 40EB 	    .byte 0x1D, 0x16, 0x40, 0xEB, 5, 0xE3, 2, 0x38, 0xD5, 0x21, 0x18, 0x50, 0xD3, 5, 0xD1, 0x57
 988      05E3 0238 
 988      D521 1850 
 988      D305 D157 
 989 1148 CF03 C703 	    .byte 0xCF, 3, 0xC7, 3, 0xC3, 2, 0x6F, 0xBF, 5, 0xB3, 0x33, 0x9F, 0x34, 0x87, 0x18, 0x76
 989      C302 6FBF 
 989      05B3 339F 
 989      3487 1876 
 990 1158 854E 0F83 	    .byte 0x85, 0x4E, 0xF, 0x83, 0x4C, 0x73, 2, 0x45, 0x63, 5, 0x63, 0x57, 0x5B, 2, 0x65, 0x4B
 990      4C73 0245 
 990      6305 6357 
 990      5B02 654B 
 991 1168 053F 032F 	    .byte 5, 0x3F, 3, 0x2F, 3, 0x20, 0x4D, 0x1F, 3, 0x10, 5, 0xD
 991      0320 4D1F 
 991      0310 050D 
 992               	    
 993               	area_10_obj_tbl_normal:
 994 1174 FF03 FF30 	    .byte 0xFF, 3, 0xFF, 0x30, 0x3F, 0xF7, 5, 0xF3, 0x57, 0xEF, 3, 0xE3, 5, 0xDB, 3, 0xCF
 994      3FF7 05F3 
68K GAS  src/xevious_sub.68k 			page 31


 994      57EF 03E3 
 994      05DB 03CF 
 995 1184 05C6 2E1C 	    .byte 5, 0xC6, 0x2E, 0x1C, 0xD8, 8, 0x60, 0x14, 0x60, 4, 0x60, 0x14, 0x60, 4, 0x60, 0x14
 995      D808 6014 
 995      6004 6014 
 995      6004 6014 
 996 1194 6004 6014 	    .byte 0x60, 4, 0x60, 0x14, 0x60, 4, 0xC6, 0x2E, 0x1E, 0x98, 8, 0x60, 0x10, 0x60, 0, 0x60
 996      6004 C62E 
 996      1E98 0860 
 996      1060 0060 
 997 11a4 1060 0060 	    .byte 0x10, 0x60, 0, 0x60, 0x10, 0x60, 0, 0x60, 0x10, 0x60, 0, 0xC6, 0x2E, 4, 0x58, 8
 997      1060 0060 
 997      1060 00C6 
 997      2E04 5808 
 998 11b4 600C 601C 	    .byte 0x60, 0xC, 0x60, 0x1C, 0x60, 0xC, 0x60, 0x1C, 0x60, 0xC, 0x60, 0x1C, 0x60, 0xC, 0x60, 0x1
 998      600C 601C 
 998      600C 601C 
 998      600C 601C 
 999 11c4 BE2E 06B8 	    .byte 0xBE, 0x2E, 6, 0xB8, 8, 0x40, 8, 0x60, 0x18, 0x60, 8, 0x60, 0x18, 0x60, 8, 0x60
 999      0840 0860 
 999      1860 0860 
 999      1860 0860 
 1000 11d4 1860 0860 	    .byte 0x18, 0x60, 8, 0x60, 0x18, 0xBE, 0x2E, 8, 0x78, 8, 0x40, 0x18, 0x60, 8, 0x60, 0x18
 1000      18BE 2E08 
 1000      7808 4018 
 1000      6008 6018 
 1001 11e4 6008 6018 	    .byte 0x60, 8, 0x60, 0x18, 0x60, 8, 0x60, 0x18, 0x60, 8, 0xB8, 0x2E, 0xA, 0xC8, 7, 0x40
 1001      6008 6018 
 1001      6008 B82E 
 1001      0AC8 0740 
 1002 11f4 1C60 0C60 	    .byte 0x1C, 0x60, 0xC, 0x60, 0x1C, 0x60, 0xC, 0x60, 0x1C, 0x60, 0xC, 0x60, 0x1C, 0xB8, 0x2E, 0x
 1002      1C60 0C60 
 1002      1C60 0C60 
 1002      1CB8 2E0C 
 1003 1204 9807 4000 	    .byte 0x98, 7, 0x40, 0, 0x60, 0x10, 0x60, 0, 0x60, 0x10, 0x60, 0, 0x60, 0x10, 0x60, 0
 1003      6010 6000 
 1003      6010 6000 
 1003      6010 6000 
 1004 1214 B82E 0E68 	    .byte 0xB8, 0x2E, 0xE, 0x68, 7, 0x40, 4, 0x60, 0x14, 0x60, 4, 0x60, 0x14, 0x60, 4, 0x60
 1004      0740 0460 
 1004      1460 0460 
 1004      1460 0460 
 1005 1224 1460 04A9 	    .byte 0x14, 0x60, 4, 0xA9, 0x1E, 0x10, 0xB0, 0xA9, 0x1E, 0x12, 0x90, 0xA7, 0x1E, 0x14, 0xA0, 0x
 1005      1E10 B0A9 
 1005      1E12 90A7 
 1005      1E14 A0A5 
 1006 1234 1E16 B0A5 	    .byte 0x1E, 0x16, 0xB0, 0xA5, 0x1E, 0x18, 0x90, 0x9B, 0x18, 0x76, 0x91, 0x1F, 0x1A, 0x40, 0x8F,
 1006      1E18 909B 
 1006      1876 911F 
 1006      1A40 8F1F 
 1007 1244 1C40 8B18 	    .byte 0x1C, 0x40, 0x8B, 0x18, 0x76, 0x87, 0x1E, 0x1E, 0x50, 0x87, 0x1E, 4, 0x40, 0x7B, 0x18, 0x
 1007      7687 1E1E 
 1007      5087 1E04 
 1007      407B 1876 
 1008 1254 6F1F 06C0 	    .byte 0x6F, 0x1F, 6, 0xC0, 0x6F, 0x1E, 8, 0xA0, 0x6F, 0x1F, 0xA, 0x80, 0x64, 0x2E, 0xC, 0x98
 1008      6F1E 08A0 
 1008      6F1F 0A80 
68K GAS  src/xevious_sub.68k 			page 32


 1008      642E 0C98 
 1009 1264 1080 1880 	    .byte 0x10, 0x80, 0x18, 0x80, 0x10, 0x80, 9, 0x20, 0xC, 0x40, 0x18, 0x20, 0x1A, 0x10, 0x18, 0x2
 1009      1080 0920 
 1009      0C40 1820 
 1009      1A10 1828 
 1010 1274 1010 0820 	    .byte 0x10, 0x10, 8, 0x20, 6, 0x48, 8, 0x18, 0xC, 0x70, 0x18, 0xA0, 0x13, 0x98, 8, 0x80
 1010      0648 0818 
 1010      0C70 18A0 
 1010      1398 0880 
 1011 1284 0447 1D0E 	    .byte 4, 0x47, 0x1D, 0xE, 0xC0, 0x47, 0x1D, 0x10, 0xA0, 0x47, 0x1D, 0x12, 0x80, 0x47, 0x1D, 0x1
 1011      C047 1D10 
 1011      A047 1D12 
 1011      8047 1D14 
 1012 1294 6043 1D16 	    .byte 0x60, 0x43, 0x1D, 0x16, 0xC0, 0x43, 0x1D, 0x18, 0xA0, 0x43, 0x1D, 0x1A, 0x80, 0x43, 0x1D,
 1012      C043 1D18 
 1012      A043 1D1A 
 1012      8043 1D1C 
 1013 12a4 6036 1E1E 	    .byte 0x60, 0x36, 0x1E, 0x1E, 0x80, 0x36, 0x26, 4, 0x60, 0x36, 0x1E, 6, 0x40, 0x2B, 0x1F, 8
 1013      8036 2604 
 1013      6036 1E06 
 1013      402B 1F08 
 1014 12b4 5021 200A 	    .byte 0x50, 0x21, 0x20, 0xA, 0x80, 0x1B, 0x20, 0xE, 0x80, 0x19, 0x1B, 0x12, 0xD0, 0x19, 0x1B, 0
 1014      801B 200E 
 1014      8019 1B12 
 1014      D019 1B14 
 1015 12c4 2013 1B16 	    .byte 0x20, 0x13, 0x1B, 0x16, 0xD0, 0x13, 0x1B, 0x18, 0x20, 0xD
 1015      D013 1B18 
 1015      200D 
 1016               	    
 1017               	area_11_obj_tbl_normal:
 1018 12ce FB11 74F3 	    .byte 0xFB, 0x11, 0x74, 0xF3, 0x22, 8, 0xE9, 0x2D, 4, 0x60, 0xE6, 0x22, 8, 0xE4, 0x2E, 0xE
 1018      2208 E92D 
 1018      0460 E622 
 1018      08E4 2E0E 
 1019 12de 9C01 8000 	    .byte 0x9C, 1, 0x80, 0, 0xDC, 0x2E, 0x10, 0x2C, 2, 0xF8, 0, 0x40, 0x1C, 0xCB, 0x26, 0x12
 1019      DC2E 102C 
 1019      02F8 0040 
 1019      1CCB 2612 
 1020 12ee B0CB 1F14 	    .byte 0xB0, 0xCB, 0x1F, 0x14, 0xA0, 0xCB, 0x2E, 0x16, 0x2C, 7, 0x70, 0, 0xE8, 0x10, 0x20, 0x12
 1020      A0CB 2E16 
 1020      2C07 7000 
 1020      E810 2012 
 1021 12fe B810 B800 	    .byte 0xB8, 0x10, 0xB8, 0, 0x20, 2, 0x20, 0, 0xC3, 0x23, 0xC3, 0x35, 0x18, 0x7C, 0xBF, 0x35
 1021      2002 2000 
 1021      C323 C335 
 1021      187C BF35 
 1022 130e 1A7C BB35 	    .byte 0x1A, 0x7C, 0xBB, 0x35, 0x1C, 0x7C, 0xB7, 0x39, 0x1E, 0x7C, 0xAF, 0x3B, 4, 0x24, 0xA7, 0x
 1022      1C7C B739 
 1022      1E7C AF3B 
 1022      0424 A73B 
 1023 131e 0624 A322 	    .byte 6, 0x24, 0xA3, 0x22, 0xC, 0x9B, 3, 0x8B, 5, 0x8B, 0x1D, 8, 0x70, 0x84, 0x1D, 0xA
 1023      0C9B 038B 
 1023      058B 1D08 
 1023      7084 1D0A 
 1024 132e 7084 2204 	    .byte 0x70, 0x84, 0x22, 4, 0x77, 0x2E, 0xC, 0x34, 9, 0x60, 0, 0xA0, 0x10, 0x28, 0xD, 0x50
 1024      772E 0C34 
 1024      0960 00A0 
68K GAS  src/xevious_sub.68k 			page 33


 1024      1028 0D50 
 1025 133e 1070 0C60 	    .byte 0x10, 0x70, 0xC, 0x60, 0xD, 0x40, 6, 0x30, 4, 0x20, 8, 0x75, 0x1F, 0xE, 0x60, 0x73
 1025      0D40 0630 
 1025      0420 0875 
 1025      1F0E 6073 
 1026 134e 1E10 7073 	    .byte 0x1E, 0x10, 0x70, 0x73, 0x23, 0x71, 0x1F, 0x12, 0x80, 0x6F, 0x1E, 0x14, 0x90, 0x6D, 0x1F,
 1026      2371 1F12 
 1026      806F 1E14 
 1026      906D 1F16 
 1027 135e A06B 1E18 	    .byte 0xA0, 0x6B, 0x1E, 0x18, 0xB0, 0x69, 0x1F, 0x1A, 0xC0, 0x67, 0x1E, 0x1C, 0xD0, 0x67, 0x57,
 1027      B069 1F1A 
 1027      C067 1E1C 
 1027      D067 5763 
 1028 136e 0363 0353 	    .byte 3, 0x63, 3, 0x53, 0x22, 0x10, 0x43, 3, 0x3B, 5, 0x2B, 0x2E, 0x1E, 0xE0, 5, 8
 1028      2210 4303 
 1028      3B05 2B2E 
 1028      1EE0 0508 
 1029 137e 0060 1820 	    .byte 0, 0x60, 0x18, 0x20, 0x1C, 0xD8, 0x18, 0x20, 0x14, 0x27, 0x21, 4, 0x68, 0x23, 0x23, 0x1E
 1029      1CD8 1820 
 1029      1427 2104 
 1029      6823 231E 
 1030 138e 1D08 201D 	    .byte 0x1D, 8, 0x20, 0x1D, 0x1F, 0xA, 0xD0, 0x1D, 0x1F, 0xC, 0xA0, 0x1B, 0x1D, 0xE, 0x38, 0x18
 1030      1F0A D01D 
 1030      1F0C A01B 
 1030      1D0E 3818 
 1031 139e 1D10 5017 	    .byte 0x1D, 0x10, 0x50, 0x17, 0x1E, 0x12, 0xD0, 0x17, 0x1E, 0x14, 0xA0, 0x15, 0x1D, 0x16, 0x68,
 1031      1E12 D017 
 1031      1E14 A015 
 1031      1D16 6813 
 1032 13ae 230D      	    .byte 0x23, 0xD
 1033               	    
 1034               	area_12_obj_tbl_normal:
 1035 13b0 FF30 0FFF 	    .byte 0xFF, 0x30, 0xF, 0xFF, 0x29, 0xF, 0xFF, 0x2B, 3, 0xFF, 0x2A, 3, 0xF3, 0x57, 0xEE, 0x2E
 1035      290F FF2B 
 1035      03FF 2A03 
 1035      F357 EE2E 
 1036 13c0 0414 0908 	    .byte 4, 0x14, 9, 8, 0, 0xA0, 8, 0x30, 0xC, 0x48, 0x10, 0x30, 0, 0x50, 0x10, 0x68
 1036      00A0 0830 
 1036      0C48 1030 
 1036      0050 1068 
 1037 13d0 0030 1C20 	    .byte 0, 0x30, 0x1C, 0x20, 0x18, 0xE5, 0x1B, 6, 0xC0, 0xE5, 0x1F, 8, 0xB0, 0xE5, 0x1F, 0xA
 1037      18E5 1B06 
 1037      C0E5 1F08 
 1037      B0E5 1F0A 
 1038 13e0 48E5 1B0C 	    .byte 0x48, 0xE5, 0x1B, 0xC, 0x38, 0xE3, 0x1F, 0xE, 0xC0, 0xE3, 0x1B, 0x10, 0xB0, 0xE3, 0x1B, 0
 1038      38E3 1F0E 
 1038      C0E3 1B10 
 1038      B0E3 1B12 
 1039 13f0 48E3 1F14 	    .byte 0x48, 0xE3, 0x1F, 0x14, 0x38, 0xDC, 0x2E, 0x16, 0x7C, 4, 8, 0x10, 0x78, 0, 0x50, 0x10
 1039      38DC 2E16 
 1039      7C04 0810 
 1039      7800 5010 
 1040 1400 4000 C935 	    .byte 0x40, 0, 0xC9, 0x35, 0x18, 0x48, 0xC9, 0x35, 0x1A, 0x38, 0xC7, 0x35, 0x1C, 0x48, 0xC7, 0x
 1040      1848 C935 
 1040      1A38 C735 
 1040      1C48 C735 
 1041 1410 1E38 BD1E 	    .byte 0x1E, 0x38, 0xBD, 0x1E, 4, 0xB0, 0xBB, 0x1E, 6, 0xB0, 0xBB, 0x1E, 8, 0x90, 0xB9, 0x1E
68K GAS  src/xevious_sub.68k 			page 34


 1041      04B0 BB1E 
 1041      06B0 BB1E 
 1041      0890 B91E 
 1042 1420 0A90 B32E 	    .byte 0xA, 0x90, 0xB3, 0x2E, 0xC, 0xCC, 1, 0x20, 0, 0xA7, 0x2E, 0xE, 0x74, 4, 0x58, 0
 1042      0CCC 0120 
 1042      00A7 2E0E 
 1042      7404 5800 
 1043 1430 A018 A008 	    .byte 0xA0, 0x18, 0xA0, 8, 0x20, 0, 0xA3, 0x2E, 0x10, 0x14, 1, 0x20, 0, 0xA3, 0x57, 0xA1
 1043      2000 A32E 
 1043      1014 0120 
 1043      00A3 57A1 
 1044 1440 2E12 1401 	    .byte 0x2E, 0x12, 0x14, 1, 0x20, 0, 0x97, 3, 0x93, 0x2E, 0x14, 0x7C, 2, 0x98, 0, 0x20
 1044      2000 9703 
 1044      932E 147C 
 1044      0298 0020 
 1045 1450 028D 1D16 	    .byte 2, 0x8D, 0x1D, 0x16, 0xE0, 0x8D, 0x1D, 0x18, 0xD0, 0x8B, 0x1D, 0x1A, 0xE0, 0x8B, 0x1D, 0x
 1045      E08D 1D18 
 1045      D08B 1D1A 
 1045      E08B 1D1C 
 1046 1460 D087 0583 	    .byte 0xD0, 0x87, 5, 0x83, 3, 0x77, 0x1E, 0x1E, 0x60, 0x77, 0x1F, 4, 0x50, 0x73, 5, 0x73
 1046      0377 1E1E 
 1046      6077 1F04 
 1046      5073 0573 
 1047 1470 2E06 1404 	    .byte 0x2E, 6, 0x14, 4, 0x70, 0, 0xE0, 0x10, 0xA0, 0x10, 0x20, 0, 0x6F, 0x1F, 8, 0x60
 1047      7000 E010 
 1047      A010 2000 
 1047      6F1F 0860 
 1048 1480 6F1E 0A50 	    .byte 0x6F, 0x1E, 0xA, 0x50, 0x6B, 3, 0x5B, 5, 0x55, 0x1B, 0xC, 0xA8, 0x47, 0x2E, 0xE, 0x78
 1048      6B03 5B05 
 1048      551B 0CA8 
 1048      472E 0E78 
 1049 1490 0308 00C8 	    .byte 3, 8, 0, 0xC8, 0x18, 0x20, 0, 0x47, 0x2E, 0x10, 0x90, 3, 8, 0, 0xF8, 0x18
 1049      1820 0047 
 1049      2E10 9003 
 1049      0800 F818 
 1050 14a0 2000 472E 	    .byte 0x20, 0, 0x47, 0x2E, 0x12, 0xA8, 4, 8, 0, 0xE0, 0x18, 0x48, 0x18, 0x20, 0, 0x37
 1050      12A8 0408 
 1050      00E0 1848 
 1050      1820 0037 
 1051 14b0 1F14 C037 	    .byte 0x1F, 0x14, 0xC0, 0x37, 0x1F, 0x16, 0xB0, 0x30, 0x1B, 0x18, 0x68, 0x2E, 0x1B, 0x1A, 0x58,
 1051      1F16 B030 
 1051      1B18 682E 
 1051      1B1A 582C 
 1052 14c0 1B1C 482A 	    .byte 0x1B, 0x1C, 0x48, 0x2A, 0x1B, 0x1E, 0x38, 0x27, 0x36, 4, 0x14, 0x23, 0x36, 6, 0x14, 0x1F
 1052      1B1E 3827 
 1052      3604 1423 
 1052      3606 141F 
 1053 14d0 3608 141B 	    .byte 0x36, 8, 0x14, 0x1B, 0x39, 0xA, 0x14, 0x18, 0x2E, 0xC, 0x88, 8, 0x40, 0, 0x80, 0x18
 1053      390A 1418 
 1053      2E0C 8808 
 1053      4000 8018 
 1054 14e0 8010 8008 	    .byte 0x80, 0x10, 0x80, 8, 0x80, 0, 0x80, 0x18, 0x80, 0x10, 0x80, 8, 0x18, 0x2E, 0xE, 0x48
 1054      8000 8018 
 1054      8010 8008 
 1054      182E 0E48 
 1055 14f0 0840 1080 	    .byte 8, 0x40, 0x10, 0x80, 8, 0x80, 0, 0x80, 0x18, 0x80, 0x10, 0x80, 8, 0x80, 0, 0x80
 1055      0880 0080 
68K GAS  src/xevious_sub.68k 			page 35


 1055      1880 1080 
 1055      0880 0080 
 1056 1500 1817 2110 	    .byte 0x18, 0x17, 0x21, 0x10, 0x70, 0xD
 1056      700D 
 1057               	    
 1058               	area_13_obj_tbl_normal:
 1059 1506 F71B 1420 	    .byte 0xF7, 0x1B, 0x14, 0x20, 0xF3, 0x1B, 0x16, 0xA0, 0xF3, 0x1B, 0x18, 0x70, 0xED, 0x1F, 0x1A,
 1059      F31B 16A0 
 1059      F31B 1870 
 1059      ED1F 1AA0 
 1060 1516 EB1F 1C90 	    .byte 0xEB, 0x1F, 0x1C, 0x90, 0xE9, 0x1F, 0x1E, 0x80, 0xE7, 0x1F, 4, 0x70, 0xE3, 0x57, 0xDF, 0x
 1060      E91F 1E80 
 1060      E71F 0470 
 1060      E357 DF1B 
 1061 1526 06C0 D91B 	    .byte 6, 0xC0, 0xD9, 0x1B, 8, 0xC0, 0xD3, 3, 0xBB, 5, 0xB1, 0x21, 0xA, 0xB0, 0xB1, 0x21
 1061      08C0 D303 
 1061      BB05 B121 
 1061      0AB0 B121 
 1062 1536 0E50 AB03 	    .byte 0xE, 0x50, 0xAB, 3, 0xA1, 0x3E, 0x12, 0x90, 0x9D, 0x3E, 0x14, 0x70, 0x99, 0x40, 0x16, 0x5
 1062      A13E 1290 
 1062      9D3E 1470 
 1062      9940 1650 
 1063 1546 953E 1830 	    .byte 0x95, 0x3E, 0x18, 0x30, 0x93, 5, 0x8D, 0x40, 0x1A, 0x50, 0x89, 0x3E, 0x1C, 0x70, 0x85, 0x
 1063      9305 8D40 
 1063      1A50 893E 
 1063      1C70 853E 
 1064 1556 1E90 813E 	    .byte 0x1E, 0x90, 0x81, 0x3E, 4, 0xB0, 0x7B, 3, 0x71, 0x1F, 6, 0xD0, 0x6F, 0x26, 8, 0xC0
 1064      04B0 7B03 
 1064      711F 06D0 
 1064      6F26 08C0 
 1065 1566 6D1F 0AB0 	    .byte 0x6D, 0x1F, 0xA, 0xB0, 0x6B, 0x26, 0xC, 0xA0, 0x69, 0x1F, 0xE, 0x90, 0x63, 5, 0x5F, 0x57
 1065      6B26 0CA0 
 1065      691F 0E90 
 1065      6305 5F57 
 1066 1576 5B02 EC43 	    .byte 0x5B, 2, 0xEC, 0x43, 5, 0x40, 0x1D, 0x10, 0x30, 0x40, 0x1D, 0x12, 0x20, 0x3B, 3, 0x36
 1066      0540 1D10 
 1066      3040 1D12 
 1066      203B 0336 
 1067 1586 1B14 C025 	    .byte 0x1B, 0x14, 0xC0, 0x25, 0x2E, 0x16, 0xE0, 2, 0xC0, 0x18, 0xC0, 8, 0x25, 0x2E, 0x18, 0x10
 1067      2E16 E002 
 1067      C018 C008 
 1067      252E 1810 
 1068 1596 02C0 08C0 	    .byte 2, 0xC0, 8, 0xC0, 0x18, 0x23, 0x2E, 0x1A, 0xD0, 2, 0xA0, 0x18, 0xA0, 8, 0x23, 0x2E
 1068      1823 2E1A 
 1068      D002 A018 
 1068      A008 232E 
 1069 15a6 1C20 02A0 	    .byte 0x1C, 0x20, 2, 0xA0, 8, 0xA0, 0x18, 0x23, 5, 0x1B, 2, 0xE6, 0xE, 5, 0xD
 1069      08A0 1823 
 1069      051B 02E6 
 1069      0E05 0D
 1070               	    
 1071               	area_14_obj_tbl_normal:
 1072 15b5 FF02 6DF7 	    .byte 0xFF, 2, 0x6D, 0xF7, 5, 0xF3, 0x22, 2, 0xE7, 0x23, 0xE7, 0x4E, 0xF, 0xE7, 2, 0xF1
 1072      05F3 2202 
 1072      E723 E74E 
 1072      0FE7 02F1 
 1073 15c5 E34C DF05 	    .byte 0xE3, 0x4C, 0xDF, 5, 0xDB, 2, 0x34, 0xD5, 5, 0xCB, 2, 0x49, 0xC5, 5, 0xBB, 2
68K GAS  src/xevious_sub.68k 			page 36


 1073      DB02 34D5 
 1073      05CB 0249 
 1073      C505 BB02 
 1074 15d5 3EBB 4DAB 	    .byte 0x3E, 0xBB, 0x4D, 0xAB, 5, 0xA1, 0x33, 0x8F, 0x34, 0x7F, 2, 0x46, 0x77, 5, 0x73, 0x18
 1074      05A1 338F 
 1074      347F 0246 
 1074      7705 7318 
 1075 15e5 7667 4C67 	    .byte 0x76, 0x67, 0x4C, 0x67, 2, 0x66, 0x65, 5, 0x5B, 2, 0x21, 0x55, 5, 0x4B, 3, 0x3B
 1075      0266 6505 
 1075      5B02 2155 
 1075      054B 033B 
 1076 15f5 0537 5733 	    .byte 5, 0x37, 0x57, 0x33, 0x4D, 0x33, 3, 0x23, 5, 0x1B, 3, 0x1F, 5, 0xD
 1076      4D33 0323 
 1076      051B 031F 
 1076      050D 
 1077               	    
 1078               	area_15_obj_tbl_normal:
 1079 1603 FF02 08F3 	    .byte 0xFF, 2, 8, 0xF3, 5, 0xEF, 0x2E, 4, 0x3C, 5, 0x80, 0, 0x80, 0x10, 0x70, 0
 1079      05EF 2E04 
 1079      3C05 8000 
 1079      8010 7000 
 1080 1613 7010 7000 	    .byte 0x70, 0x10, 0x70, 0, 0xEE, 0x1D, 6, 0xD0, 0xEE, 0x26, 8, 0x80, 0xE6, 0x2E, 0xA, 0x3C
 1080      EE1D 06D0 
 1080      EE26 0880 
 1080      E62E 0A3C 
 1081 1623 0370 0070 	    .byte 3, 0x70, 0, 0x70, 0x10, 0x70, 0, 0xE5, 0x1F, 0xC, 0x80, 0xDE, 0x2E, 0xE, 0x3C, 3
 1081      1070 00E5 
 1081      1F0C 80DE 
 1081      2E0E 3C03 
 1082 1633 6000 6010 	    .byte 0x60, 0, 0x60, 0x10, 0x60, 0, 0xD7, 0x1F, 0x10, 0xC0, 0xD7, 0x2E, 0x12, 0x26, 6, 0x50
 1082      6000 D71F 
 1082      10C0 D72E 
 1082      1226 0650 
 1083 1643 0278 1218 	    .byte 2, 0x78, 0x12, 0x18, 0x10, 0x18, 0, 0x80, 2, 0x20, 0, 0xD5, 0x1F, 0x14, 0xD0, 0xD2
 1083      1018 0080 
 1083      0220 00D5 
 1083      1F14 D0D2 
 1084 1653 2616 50CD 	    .byte 0x26, 0x16, 0x50, 0xCD, 0x2E, 0x18, 0x1C, 4, 0x40, 0, 0xA0, 0x10, 0xD8, 0, 0x20, 2
 1084      2E18 1C04 
 1084      4000 A010 
 1084      D800 2002 
 1085 1663 C61F 0450 	    .byte 0xC6, 0x1F, 4, 0x50, 0xC2, 0x2E, 0x1A, 0x1C, 3, 0x80, 0, 0xA0, 0, 0x20, 2, 0xBE
 1085      C22E 1A1C 
 1085      0380 00A0 
 1085      0020 02BE 
 1086 1673 351C 1CBA 	    .byte 0x35, 0x1C, 0x1C, 0xBA, 0x3B, 0x1E, 0x1C, 0xB6, 0x1F, 6, 0xD0, 0xB6, 0x26, 8, 0xC0, 0xB6
 1086      3B1E 1CB6 
 1086      1F06 D0B6 
 1086      2608 C0B6 
 1087 1683 1D0A 50B3 	    .byte 0x1D, 0xA, 0x50, 0xB3, 3, 0xA9, 0x1D, 0xC, 0xB0, 0xA3, 3, 0xA0, 0x26, 0xE, 0xA0, 0xA0
 1087      03A9 1D0C 
 1087      B0A3 03A0 
 1087      260E A0A0 
 1088 1693 1F10 9093 	    .byte 0x1F, 0x10, 0x90, 0x93, 5, 0x8B, 3, 0x7B, 5, 0x78, 0x21, 0x12, 0xC8, 0x76, 0x2E, 0x16
 1088      058B 037B 
 1088      0578 2112 
 1088      C876 2E16 
68K GAS  src/xevious_sub.68k 			page 37


 1089 16a3 7808 5014 	    .byte 0x78, 8, 0x50, 0x14, 0x50, 4, 0x50, 0x14, 0x50, 4, 0x50, 0x14, 0x50, 4, 0x50, 0x14
 1089      5004 5014 
 1089      5004 5014 
 1089      5004 5014 
 1090 16b3 5004 762E 	    .byte 0x50, 4, 0x76, 0x2E, 0x18, 0x18, 8, 0x50, 0xC, 0x50, 0x1C, 0x50, 0xC, 0x50, 0x1C, 0x50
 1090      1818 0850 
 1090      0C50 1C50 
 1090      0C50 1C50 
 1091 16c3 0C50 1C50 	    .byte 0xC, 0x50, 0x1C, 0x50, 0xC, 0x50, 0x1C, 0x6B, 0x2E, 0x1A, 0x70, 9, 0x40, 0x1C, 0x50, 0xC
 1091      0C50 1C6B 
 1091      2E1A 7009 
 1091      401C 500C 
 1092 16d3 501C 500C 	    .byte 0x50, 0x1C, 0x50, 0xC, 0x50, 0x1C, 0x50, 0xC, 0x50, 0x1C, 0x50, 0xC, 0x50, 0x1C, 0x6B, 0x
 1092      501C 500C 
 1092      501C 500C 
 1092      501C 6B2E 
 1093 16e3 1C20 0940 	    .byte 0x1C, 0x20, 9, 0x40, 4, 0x50, 0x14, 0x50, 4, 0x50, 0x14, 0x50, 4, 0x50, 0x14, 0x50
 1093      0450 1450 
 1093      0450 1450 
 1093      0450 1450 
 1094 16f3 0450 1450 	    .byte 4, 0x50, 0x14, 0x50, 4, 0x61, 0x2E, 0x1E, 0xA4, 7, 0x18, 0, 0x10, 0x1C, 0x60, 0x18
 1094      0461 2E1E 
 1094      A407 1800 
 1094      101C 6018 
 1095 1703 3814 4016 	    .byte 0x38, 0x14, 0x40, 0x16, 0x60, 0x1E, 0x20, 0x1C, 0x5F, 0x1F, 4, 0x80, 0x5B, 0x26, 6, 0x60
 1095      601E 201C 
 1095      5F1F 0480 
 1095      5B26 0660 
 1096 1713 5B1D 0820 	    .byte 0x5B, 0x1D, 8, 0x20, 0x57, 0x1F, 0xA, 0x40, 0x4E, 0x2E, 0x14, 0xAC, 6, 0x50, 0, 0xA8
 1096      571F 0A40 
 1096      4E2E 14AC 
 1096      0650 00A8 
 1097 1723 1010 08E0 	    .byte 0x10, 0x10, 8, 0xE0, 0x18, 0xA0, 0x10, 0xC0, 0, 0x48, 0x2E, 0x12, 0xD4, 6, 8, 0
 1097      18A0 10C0 
 1097      0048 2E12 
 1097      D406 0800 
 1098 1733 9018 1008 	    .byte 0x90, 0x18, 0x10, 8, 0xA0, 0x18, 0xE0, 0x10, 0xC0, 0, 0x47, 0x2E, 0x10, 0x44, 6, 0x18
 1098      A018 E010 
 1098      C000 472E 
 1098      1044 0618 
 1099 1743 0070 0870 	    .byte 0, 0x70, 8, 0x70, 0x18, 0xC0, 0x10, 0xF0, 0x10, 0x20, 0x18, 0x3B, 0x26, 0x16, 0xB0, 0x37
 1099      18C0 10F0 
 1099      1020 183B 
 1099      2616 B037 
 1100 1753 1F18 901F 	    .byte 0x1F, 0x18, 0x90, 0x1F, 0x1B, 0x1A, 0x90, 0x1F, 0x1B, 0x1C, 0x70, 0x1F, 0x1B, 0x1E, 0x50,
 1100      1B1A 901F 
 1100      1B1C 701F 
 1100      1B1E 501B 
 1101 1763 1B04 701B 	    .byte 0x1B, 4, 0x70, 0x1B, 0x35, 6, 0x24, 0x1B, 2, 0x3F, 0x17, 0x3B, 8, 0x24, 0x15, 0x21
 1101      3506 241B 
 1101      023F 173B 
 1101      0824 1521 
 1102 1773 0AC0 133B 	    .byte 0xA, 0xC0, 0x13, 0x3B, 0xE, 0x24, 0xF, 5, 0xD
 1102      0E24 0F05 
 1102      0D
 1103               	    
 1104               	area_16_obj_tbl_normal:
68K GAS  src/xevious_sub.68k 			page 38


 1105 177c 0157 FF03 	    .byte 1, 0x57, 0xFF, 3, 0xF3, 0x1D, 0x14, 0x20, 0xEF, 5, 0xE7, 0x2E, 0x16, 0x9C, 3, 0x40
 1105      F31D 1420 
 1105      EF05 E72E 
 1105      169C 0340 
 1106 178c 0038 1C40 	    .byte 0, 0x38, 0x1C, 0x40, 0x18, 0xE5, 0x1B, 0x18, 0x60, 0xE1, 0x2E, 0x1A, 0x24, 3, 0x80, 0
 1106      18E5 1B18 
 1106      60E1 2E1A 
 1106      2403 8000 
 1107 179c 8010 8000 	    .byte 0x80, 0x10, 0x80, 0, 0xDD, 0x2E, 0x1C, 0x9C, 3, 0x80, 0, 0x80, 0x10, 0x80, 0, 0xD7
 1107      DD2E 1C9C 
 1107      0380 0080 
 1107      1080 00D7 
 1108 17ac 1B1E 78D7 	    .byte 0x1B, 0x1E, 0x78, 0xD7, 0x1B, 4, 0x48, 0xD7, 0x2E, 6, 0x24, 3, 0x80, 0, 0x80, 0x10
 1108      1B04 48D7 
 1108      2E06 2403 
 1108      8000 8010 
 1109 17bc 8000 D32E 	    .byte 0x80, 0, 0xD3, 0x2E, 8, 0x9C, 3, 0x80, 0, 0x80, 0x10, 0x80, 0, 0xD3, 0x1B, 0xA
 1109      089C 0380 
 1109      0080 1080 
 1109      00D3 1B0A 
 1110 17cc 60CD 2E0C 	    .byte 0x60, 0xCD, 0x2E, 0xC, 0x24, 3, 0x80, 0, 0x80, 0x10, 0x80, 0, 0xCB, 0x26, 0xE, 0xC8
 1110      2403 8000 
 1110      8010 8000 
 1110      CB26 0EC8 
 1111 17dc CB26 1060 	    .byte 0xCB, 0x26, 0x10, 0x60, 0xC5, 0x2E, 0x12, 0x9C, 8, 0x60, 0, 0x78, 0x10, 0x20, 0x12, 0xF8
 1111      C52E 129C 
 1111      0860 0078 
 1111      1020 12F8 
 1112 17ec 1058 1050 	    .byte 0x10, 0x58, 0x10, 0x50, 0x18, 0x50, 8, 0x20, 0, 0xC5, 0x2E, 0x14, 0x24, 8, 0x60, 0
 1112      1850 0820 
 1112      00C5 2E14 
 1112      2408 6000 
 1113 17fc 9010 200C 	    .byte 0x90, 0x10, 0x20, 0xC, 0xE0, 0x10, 0x58, 0x10, 0x50, 8, 0x50, 0x18, 0x20, 0, 0xC5, 0x57
 1113      E010 5810 
 1113      5008 5018 
 1113      2000 C557 
 1114 180c C303 BB3B 	    .byte 0xC3, 3, 0xBB, 0x3B, 0x16, 0x70, 0xBB, 0x3B, 0x18, 0x50, 0xB7, 0x3C, 0x1A, 0x70, 0xB7, 0x
 1114      1670 BB3B 
 1114      1850 B73C 
 1114      1A70 B73B 
 1115 181c 1C50 B303 	    .byte 0x1C, 0x50, 0xB3, 3, 0xA3, 3, 0x95, 0x1F, 0x1E, 0x80, 0x93, 5, 0x93, 0x1F, 4, 0x70
 1115      A303 951F 
 1115      1E80 9305 
 1115      931F 0470 
 1116 182c 911F 0660 	    .byte 0x91, 0x1F, 6, 0x60, 0x8F, 0x1F, 8, 0x50, 0x85, 3, 0x7D, 0x26, 0xA, 0xE0, 0x7D, 0x26
 1116      8F1F 0850 
 1116      8503 7D26 
 1116      0AE0 7D26 
 1117 183c 0C88 7D26 	    .byte 0xC, 0x88, 0x7D, 0x26, 0xE, 0x50, 0x79, 0x26, 0x10, 0xC0, 0x79, 0x26, 0x12, 0x6C, 0x79, 0
 1117      0E50 7926 
 1117      10C0 7926 
 1117      126C 7926 
 1118 184c 1418 6F21 	    .byte 0x14, 0x18, 0x6F, 0x21, 0x16, 0x80, 0x6F, 0x3B, 0x1A, 0x34, 0x6B, 0x3B, 0x1C, 0x34, 0x6B,
 1118      1680 6F3B 
 1118      1A34 6B3B 
 1118      1C34 6B05 
 1119 185c 671D 1EB0 	    .byte 0x67, 0x1D, 0x1E, 0xB0, 0x65, 0x1D, 4, 0xA0, 0x63, 3, 0x53, 5, 0x4F, 0x26, 6, 0x80
68K GAS  src/xevious_sub.68k 			page 39


 1119      651D 04A0 
 1119      6303 5305 
 1119      4F26 0680 
 1120 186c 4C1F 0868 	    .byte 0x4C, 0x1F, 8, 0x68, 0x4B, 0x2E, 0xA, 0x34, 2, 0xA0, 4, 0x20, 6, 0x44, 0x1B, 0xC
 1120      4B2E 0A34 
 1120      02A0 0420 
 1120      0644 1B0C 
 1121 187c 703E 1B0E 	    .byte 0x70, 0x3E, 0x1B, 0xE, 0xC0, 0x3E, 0x1D, 0x10, 0x70, 0x3E, 0x1B, 0x12, 0x18, 0x38, 0x1B, 
 1121      C03E 1D10 
 1121      703E 1B12 
 1121      1838 1B14 
 1122 188c 7037 2E16 	    .byte 0x70, 0x37, 0x2E, 0x16, 0xA4, 3, 0x70, 0, 0x70, 0x10, 0x70, 0, 0x37, 0x2E, 4, 0x34
 1122      A403 7000 
 1122      7010 7000 
 1122      372E 0434 
 1123 189c 0370 0070 	    .byte 3, 0x70, 0, 0x70, 0x10, 0x70, 0, 0x33, 2, 0xE6, 0x23, 5, 0x22, 0x2E, 6, 0x48
 1123      1070 0033 
 1123      02E6 2305 
 1123      222E 0648 
 1124 18ac 02B8 0420 	    .byte 2, 0xB8, 4, 0x20, 8, 0x22, 0x2E, 8, 0x34, 1, 0x20, 0, 0x1B, 0x2E, 0xA, 0x48
 1124      0822 2E08 
 1124      3401 2000 
 1124      1B2E 0A48 
 1125 18bc 0830 00A0 	    .byte 8, 0x30, 0, 0xA0, 4, 0xA0, 0x10, 0x80, 0xC, 0x40, 0x10, 0x80, 0x18, 0xA0, 0x18, 0x20
 1125      04A0 1080 
 1125      0C40 1080 
 1125      18A0 1820 
 1126 18cc 0017 2118 	    .byte 0, 0x17, 0x21, 0x18, 0x90, 0x17, 0x21, 0x1C, 0x70, 0x17, 2, 0x7E, 0xF, 5, 0xF, 0x30
 1126      9017 211C 
 1126      7017 027E 
 1126      0F05 0F30 
 1127 18dc 1F0D      	    .byte 0x1F, 0xD
 1128               	
 1129               	
 1130               	area_1_obj_tbl_super:
 1131 18de 0C53 000C 	    .byte 0xC, 0x53, 0, 0xC, 0xFF, 0x24, 0xF, 0xFF, 0x25, 0xFF
 1131      FF24 0FFF 
 1131      25FF 
 1132 18e8 FF28 12FF 	    .byte 0xFF, 0x28, 0x12, 0xFF, 0x29, 0x1F, 0xFE, 0x2A, 7
 1132      291F FE2A 
 1132      07
 1133 18f1 FE2F 1FFE 	    .byte 0xFE, 0x2F, 0x1F, 0xFE, 0x30, 0x1F, 0xFE, 0x2B, 7
 1133      301F FE2B 
 1133      07
 1134 18fa FD03 EB03 	    .byte 0xFD, 3, 0xEB, 3, 0xD7, 3, 0xD6, 0x1E, 4, 0x80, 0xD6
 1134      D703 D61E 
 1134      0480 D6
 1135 1905 1F06 70C3 	    .byte 0x1F, 6, 0x70, 0xC3, 5, 0xB7, 3, 0xB6, 0x1E, 8, 0x80
 1135      05B7 03B6 
 1135      1E08 80
 1136 1910 B626 0A70 	    .byte 0xB6, 0x26, 0xA, 0x70, 0xAB, 0x1E, 0xC, 0x58, 0xA9
 1136      AB1E 0C58 
 1136      A9
 1137 1919 260E 58A1 	    .byte 0x26, 0xE, 0x58, 0xA1, 0x1F, 0x10, 0x40, 0x9F, 0x26
 1137      1F10 409F 
 1137      26
 1138 1922 1250 9F05 	    .byte 0x12, 0x50, 0x9F, 5, 0x9B, 0x57, 0x93, 3, 0x83, 3
68K GAS  src/xevious_sub.68k 			page 40


 1138      9B57 9303 
 1138      8303 
 1139 192c 7A26 1470 	    .byte 0x7A, 0x26, 0x14, 0x70, 0x78, 0x1F, 0x16, 0x70, 0x73
 1139      781F 1670 
 1139      73
 1140 1935 0361 2C18 	    .byte 3, 0x61, 0x2C, 0x18, 0x5A, 0x60, 0x25, 0x1F, 0x5F
 1140      5A60 251F 
 1140      5F
 1141 193e 575E 2C1A 	    .byte 0x57, 0x5E, 0x2C, 0x1A, 0x5A, 0x5D, 0x1D, 0x1C, 0x20
 1141      5A5D 1D1C 
 1141      20
 1142 1947 5B2C 1E5A 	    .byte 0x5B, 0x2C, 0x1E, 0x5A, 0x5B, 3, 0x53, 3, 0x47, 3
 1142      5B03 5303 
 1142      4703 
 1143 1951 4454 003C 	    .byte 0x44, 0x54, 0, 0x3C, 0x1E, 4, 0x60, 0x3C, 0x26, 6
 1143      1E04 603C 
 1143      2606 
 1144 195b 703B 02E0 	    .byte 0x70, 0x3B, 2, 0xE0, 0x27, 0x1F, 8, 0x28, 0x25, 0x26
 1144      271F 0828 
 1144      2526 
 1145 1965 0A38 231F 	    .byte 0xA, 0x38, 0x23, 0x1F, 0xC, 0x48, 0x23, 0x26, 0xE
 1145      0C48 2326 
 1145      0E
 1146 196e C021 2610 	    .byte 0xC0, 0x21, 0x26, 0x10, 0x58, 0x1F, 0x1F, 0x12, 0x68
 1146      581F 1F12 
 1146      68
 1147 1977 1705 171D 	    .byte 0x17, 5, 0x17, 0x1D, 0x14, 0x20, 0x16, 0x57, 0x15
 1147      1420 1657 
 1147      15
 1148 1980 2D16 680D 	    .byte 0x2D, 0x16, 0x68, 0xD
 1149               	area_2_obj_tbl_super:
 1150 1984 FF02 E1EF 	    .byte 0xFF, 2, 0xE1, 0xEF, 5, 0xE7, 0x2E, 4, 0x9C, 3, 0x40
 1150      05E7 2E04 
 1150      9C03 40
 1151 198f 0038 1CFF 	    .byte 0, 0x38, 0x1C, 0xFF, 0x18, 0xDD, 0x26, 6, 0x70, 0xDD
 1151      18DD 2606 
 1151      70DD 
 1152 1999 1E08 60D3 	    .byte 0x1E, 8, 0x60, 0xD3, 0x1F, 0xA, 0xD0, 0xD3, 0x26, 0xC
 1152      1F0A D0D3 
 1152      260C 
 1153 19a3 C0C9 260E 	    .byte 0xC0, 0xC9, 0x26, 0xE, 0x70, 0xC9, 0x26, 0x10, 0x60
 1153      70C9 2610 
 1153      60
 1154 19ac C303 BB2E 	    .byte 0xC3, 3, 0xBB, 0x2E, 0x12, 0x94, 3, 0x68, 0, 0x20
 1154      1294 0368 
 1154      0020 
 1155 19b6 02FF 00B3 	    .byte 2, 0xFF, 0, 0xB3, 0x26, 0x14, 0x68, 0xB3, 5, 0xA7
 1155      2614 68B3 
 1155      05A7 
 1156 19c0 2E16 9403 	    .byte 0x2E, 0x16, 0x94, 3, 0x58, 0, 0xC0, 0x18, 0xFF, 0
 1156      5800 C018 
 1156      FF00 
 1157 19ca A326 1870 	    .byte 0xA3, 0x26, 0x18, 0x70, 0xA3, 0x1F, 0x1A, 0x60, 0xA3
 1157      A31F 1A60 
 1157      A3
 1158 19d3 0395 261C 	    .byte 3, 0x95, 0x26, 0x1C, 0x68, 0x93, 3, 0x83, 5, 0x79
 1158      6893 0383 
68K GAS  src/xevious_sub.68k 			page 41


 1158      0579 
 1159 19dd 1F1E D06F 	    .byte 0x1F, 0x1E, 0xD0, 0x6F, 0x26, 4, 0x70, 0x6F, 0x1F
 1159      2604 706F 
 1159      1F
 1160 19e6 0660 6D1F 	    .byte 6, 0x60, 0x6D, 0x1F, 8, 0x70, 0x6D, 0x26, 0xA, 0x60
 1160      0870 6D26 
 1160      0A60 
 1161 19f0 671D 0C80 	    .byte 0x67, 0x1D, 0xC, 0x80, 0x67, 0x2E, 0xE, 0xD8, 4, 0x48
 1161      672E 0ED8 
 1161      0448 
 1162 19fa 1C50 0020 	    .byte 0x1C, 0x50, 0, 0x20, 0x1C, 0xFF, 0, 0x5B, 3, 0x4B
 1162      1CFF 005B 
 1162      034B 
 1163 1a04 0547 2E10 	    .byte 5, 0x47, 0x2E, 0x10, 0xA4, 4, 8, 0, 0x50, 8, 0x60
 1163      A404 0800 
 1163      5008 60
 1164 1a0f 00C0 0244 	    .byte 0, 0xC0, 2, 0x44, 0x2E, 0x12, 0x34, 3, 0x78, 0, 0xA8
 1164      2E12 3403 
 1164      7800 A8
 1165 1a1a 04C0 063E 	    .byte 4, 0xC0, 6, 0x3E, 0x1D, 0x14, 0x20, 0x39, 0x1F, 0x16
 1165      1D14 2039 
 1165      1F16 
 1166 1a24 D039 2618 	    .byte 0xD0, 0x39, 0x26, 0x18, 0xC0, 0x34, 0x57, 0x33, 3
 1166      C034 5733 
 1166      03
 1167 1a2d 271E 1A90 	    .byte 0x27, 0x1E, 0x1A, 0x90, 0x25, 0x1F, 0x1C, 0x80, 0x25
 1167      251F 1C80 
 1167      25
 1168 1a36 2E1E 6002 	    .byte 0x2E, 0x1E, 0x60, 2, 0x90, 4, 0xC0, 8, 0x23, 0x1E
 1168      9004 C008 
 1168      231E 
 1169 1a40 0470 2305 	    .byte 4, 0x70, 0x23, 5, 0x21, 0x1F, 6, 0x60, 0x1F, 0x1E
 1169      211F 0660 
 1169      1F1E 
 1170 1a4a 0850 1C28 	    .byte 8, 0x50, 0x1C, 0x28, 0x1A, 0x1B, 2, 0xE1, 0x17, 0x26
 1170      1A1B 02E1 
 1170      1726 
 1171 1a54 0AA0 1726 	    .byte 0xA, 0xA0, 0x17, 0x26, 0xC, 0x90, 0x15, 5, 0x13, 0x1F
 1171      0C90 1505 
 1171      131F 
 1172 1a5e 0EB0 131B 	    .byte 0xE, 0xB0, 0x13, 0x1B, 0x10, 0xA0, 0x13, 0x1B, 0x12
 1172      10A0 131B 
 1172      12
 1173 1a67 9013 1F14 	    .byte 0x90, 0x13, 0x1F, 0x14, 0x80, 0xD
 1173      800D 
 1174               	area_3_obj_tbl_super:
 1175 1a6d FF22 04FF 	    .byte 0xFF, 0x22, 4, 0xFF, 0x28, 0x16, 0xEF, 0x1F, 0x16
 1175      2816 EF1F 
 1175      16
 1176 1a76 40E4 2202 	    .byte 0x40, 0xE4, 0x22, 2, 0xBD, 0x26, 0x18, 0xA0, 0xBB
 1176      BD26 18A0 
 1176      BB
 1177 1a7f 1F1A A0B8 	    .byte 0x1F, 0x1A, 0xA0, 0xB8, 0x22, 2, 0xA3, 0x20, 0x1C
 1177      2202 A320 
 1177      1C
 1178 1a88 C09B 1D04 	    .byte 0xC0, 0x9B, 0x1D, 4, 0xE0, 0x93, 0xF, 0x74, 0x91, 0x26
 1178      E093 0F74 
68K GAS  src/xevious_sub.68k 			page 42


 1178      9126 
 1179 1a92 0680 8F1E 	    .byte 6, 0x80, 0x8F, 0x1E, 8, 0x80, 0x87, 0x1E, 0xA, 0x90
 1179      0880 871E 
 1179      0A90 
 1180 1a9c 871F 0C80 	    .byte 0x87, 0x1F, 0xC, 0x80, 0x83, 0x23, 0x83, 0x57, 0x7B
 1180      8323 8357 
 1180      7B
 1181 1aa5 036B 1F0E 	    .byte 3, 0x6B, 0x1F, 0xE, 0xD0, 0x6B, 0x26, 0x10, 0xA0, 0x63
 1181      D06B 2610 
 1181      A063 
 1182 1aaf 0563 2612 	    .byte 5, 0x63, 0x26, 0x12, 0x60, 0x5B, 0x1F, 0x14, 0x60
 1182      605B 1F14 
 1182      60
 1183 1ab8 5736 1678 	    .byte 0x57, 0x36, 0x16, 0x78, 0x57, 3, 0x4B, 0x57, 0x49
 1183      5703 4B57 
 1183      49
 1184 1ac1 1F18 D049 	    .byte 0x1F, 0x18, 0xD0, 0x49, 0x26, 0x1A, 0xA0, 0x43, 3
 1184      261A A043 
 1184      03
 1185 1aca 4354 0036 	    .byte 0x43, 0x54, 0, 0x36, 0x1E, 0x1C, 0xC0, 0x36, 0x26
 1185      1E1C C036 
 1185      26
 1186 1ad3 1EA8 361F 	    .byte 0x1E, 0xA8, 0x36, 0x1F, 4, 0x90, 0x36, 0x1E, 6, 0x78
 1186      0490 361E 
 1186      0678 
 1187 1add 2C1F 0890 	    .byte 0x2C, 0x1F, 8, 0x90, 0x2B, 5, 0x1F, 0x1F, 0xA, 0x80
 1187      2B05 1F1F 
 1187      0A80 
 1188 1ae7 1F26 0C60 	    .byte 0x1F, 0x26, 0xC, 0x60, 0x1F, 0x1F, 0xE, 0x40, 0x18
 1188      1F1F 0E40 
 1188      18
 1189 1af0 2403 1721 	    .byte 0x24, 3, 0x17, 0x21, 0x10, 0x60, 0x17, 0x1D, 0x14
 1189      1060 171D 
 1189      14
 1190 1af9 E00D      	    .byte 0xE0, 0xD
 1191               	    
 1192               	area_4_obj_tbl_super:
 1193 1afb FF02 E1F0 	    .byte 0xFF, 2, 0xE1, 0xF0, 5, 0xED, 0x2E, 0x16, 0x9C, 3
 1193      05ED 2E16 
 1193      9C03 
 1194 1b05 A000 8010 	    .byte 0xA0, 0, 0x80, 0x10, 0x80, 0, 0xE3, 0x2E, 0x18, 0x2C
 1194      8000 E32E 
 1194      182C 
 1195 1b0f 0290 0080 	    .byte 2, 0x90, 0, 0x80, 0x1C, 0xDB, 0x1E, 0x1A, 0x60, 0xDB
 1195      1CDB 1E1A 
 1195      60DB 
 1196 1b19 1F1C 50D1 	    .byte 0x1F, 0x1C, 0x50, 0xD1, 0x2E, 0x1E, 0x7C, 3, 0x38
 1196      2E1E 7C03 
 1196      38
 1197 1b22 0080 02C0 	    .byte 0, 0x80, 2, 0xC0, 0, 0xCB, 3, 0xC5, 0x26, 4, 0xB0
 1197      00CB 03C5 
 1197      2604 B0
 1198 1b2d C51F 06A0 	    .byte 0xC5, 0x1F, 6, 0xA0, 0xC2, 0x1D, 8, 0xB0, 0xBD, 0x2E
 1198      C21D 08B0 
 1198      BD2E 
 1199 1b37 0A24 0348 	    .byte 0xA, 0x24, 3, 0x48, 0, 0x28, 2, 0xFF, 0, 0xBB, 5, 0xAF
 1199      0028 02FF 
68K GAS  src/xevious_sub.68k 			page 43


 1199      00BB 05AF 
 1200 1b43 1F0C 50AD 	    .byte 0x1F, 0xC, 0x50, 0xAD, 0x1F, 0xE, 0x40, 0xAA, 0x26
 1200      1F0E 40AA 
 1200      26
 1201 1b4c 1050 A726 	    .byte 0x10, 0x50, 0xA7, 0x26, 0x12, 0x40, 0xA7, 0x2E, 0x14
 1201      1240 A72E 
 1201      14
 1202 1b55 2404 6000 	    .byte 0x24, 4, 0x60, 0, 0xD8, 0x10, 0x28, 8, 0xFF, 2, 0x9F
 1202      D810 2808 
 1202      FF02 9F
 1203 1b60 038B 0587 	    .byte 3, 0x8B, 5, 0x87, 0x22, 1, 0x83, 0x23, 0x73, 2, 0xE2
 1203      2201 8323 
 1203      7302 E2
 1204 1b6b 734E 2F73 	    .byte 0x73, 0x4E, 0x2F, 0x73, 0x4C, 0x63, 5, 0x5F, 2, 0xE2
 1204      4C63 055F 
 1204      02E2 
 1205 1b75 4F05 3F22 	    .byte 0x4F, 5, 0x3F, 0x22, 4, 0x33, 0x23, 0x31, 0x23, 0x2B
 1205      0433 2331 
 1205      232B 
 1206 1b7f 232B 5728 	    .byte 0x23, 0x2B, 0x57, 0x28, 3, 0x20, 0x4D, 0x20, 3, 0x10
 1206      0320 4D20 
 1206      0310 
 1207 1b89 030D      	    .byte 3, 0xD
 1208               	    
 1209               	area_5_obj_tbl_super:
 1210 1b8b FF24 07FF 	    .byte 0xFF, 0x24, 7, 0xFF, 0x2F, 0xF, 0xFE, 0x30, 0xF, 0xFE
 1210      2F0F FE30 
 1210      0FFE 
 1211 1b95 281C FD03 	    .byte 0x28, 0x1C, 0xFD, 3, 0xEF, 3, 0xE3, 0x57, 0xE3, 5
 1211      EF03 E357 
 1211      E305 
 1212 1b9f DD1F 04A0 	    .byte 0xDD, 0x1F, 4, 0xA0, 0xDD, 0x1E, 6, 0x90, 0xDB, 0x21
 1212      DD1E 0690 
 1212      DB21 
 1213 1ba9 0870 DB1E 	    .byte 8, 0x70, 0xDB, 0x1E, 0xC, 0xA0, 0xDB, 0x1F, 0xE, 0x90
 1213      0CA0 DB1F 
 1213      0E90 
 1214 1bb3 D13D 10C0 	    .byte 0xD1, 0x3D, 0x10, 0xC0, 0xCB, 3, 0xBF, 0x3E, 0x12
 1214      CB03 BF3E 
 1214      12
 1215 1bbc A0BB 03BB 	    .byte 0xA0, 0xBB, 3, 0xBB, 0x3E, 0x14, 0x60, 0xB7, 0x3E
 1215      3E14 60B7 
 1215      3E
 1216 1bc5 16A0 B303 	    .byte 0x16, 0xA0, 0xB3, 3, 0xB3, 0x3F, 0x18, 0x60, 0xAF
 1216      B33F 1860 
 1216      AF
 1217 1bce 3F1A 20A7 	    .byte 0x3F, 0x1A, 0x20, 0xA7, 5, 0xA5, 0x21, 0x1C, 0x68
 1217      05A5 211C 
 1217      68
 1218 1bd7 9B3E 0440 	    .byte 0x9B, 0x3E, 4, 0x40, 0x97, 0x3E, 6, 0x80, 0x95, 0x3E
 1218      973E 0680 
 1218      953E 
 1219 1be1 08A0 933E 	    .byte 8, 0xA0, 0x93, 0x3E, 0xA, 0xC0, 0x93, 3, 0x7B, 5, 0x71
 1219      0AC0 9303 
 1219      7B05 71
 1220 1bec 2E0C 600C 	    .byte 0x2E, 0xC, 0x60, 0xC, 0x30, 0, 0x30, 0x10, 0x30, 0x18
 1220      3000 3010 
68K GAS  src/xevious_sub.68k 			page 44


 1220      3018 
 1221 1bf6 3008 3000 	    .byte 0x30, 8, 0x30, 0, 0x30, 0x10, 0x30, 0x18, 0x30, 8
 1221      3010 3018 
 1221      3008 
 1222 1c00 3000 3010 	    .byte 0x30, 0, 0x30, 0x10, 0x30, 0x18, 0x30, 8, 0x71, 0x1D
 1222      3018 3008 
 1222      711D 
 1223 1c0a 0E20 7025 	    .byte 0xE, 0x20, 0x70, 0x25, 0xF, 0x70, 0x24, 0xF, 0x6B
 1223      0F70 240F 
 1223      6B
 1224 1c13 1E10 8069 	    .byte 0x1E, 0x10, 0x80, 0x69, 0x26, 0x12, 0x80, 0x67, 0x1E
 1224      2612 8067 
 1224      1E
 1225 1c1c 1480 6526 	    .byte 0x14, 0x80, 0x65, 0x26, 0x16, 0x80, 0x63, 3, 0x4B
 1225      1680 6303 
 1225      4B
 1226 1c25 054B 1F18 	    .byte 5, 0x4B, 0x1F, 0x18, 0xC0, 0x3F, 3, 0x35, 0x1F, 0x1A
 1226      C03F 0335 
 1226      1F1A 
 1227 1c2f 8032 2E1C 	    .byte 0x80, 0x32, 0x2E, 0x1C, 0xD8, 3, 0xC0, 0x18, 0x18
 1227      D803 C018 
 1227      18
 1228 1c38 10C0 082F 	    .byte 0x10, 0xC0, 8, 0x2F, 5, 0x2D, 0x1D, 0x1E, 0xC0, 0x25
 1228      052D 1D1E 
 1228      C025 
 1229 1c42 5400 232E 	    .byte 0x54, 0, 0x23, 0x2E, 4, 0xC0, 1, 0xC0, 0x18, 0x20
 1229      04C0 01C0 
 1229      1820 
 1230 1c4c 2E06 2001 	    .byte 0x2E, 6, 0x20, 1, 0xC0, 8, 0x1D, 0x2E, 8, 0xC0, 1
 1230      C008 1D2E 
 1230      08C0 01
 1231 1c57 C018 171F 	    .byte 0xC0, 0x18, 0x17, 0x1F, 0xA, 0xC0, 0x17, 0x21, 0xC
 1231      0AC0 1721 
 1231      0C
 1232 1c60 8017 1F10 	    .byte 0x80, 0x17, 0x1F, 0x10, 0x40, 0xD
 1232      400D 
 1233               	    
 1234               	area_6_obj_tbl_super:
 1235 1c66 FF24 07F3 	    .byte 0xFF, 0x24, 7, 0xF3, 0x26, 4, 0xC0, 0xF3, 0x1E, 6
 1235      2604 C0F3 
 1235      1E06 
 1236 1c70 B0EB 2E08 	    .byte 0xB0, 0xEB, 0x2E, 8, 0x3C, 3, 0xC0, 0, 0xC0, 0x10
 1236      3C03 C000 
 1236      C010 
 1237 1c7a C000 E003 	    .byte 0xC0, 0, 0xE0, 3, 0xDB, 0x2E, 0xA, 0x34, 2, 0x20, 2
 1237      DB2E 0A34 
 1237      0220 02
 1238 1c85 FF00 D71F 	    .byte 0xFF, 0, 0xD7, 0x1F, 0xC, 0xC0, 0xD5, 0x26, 0xE, 0xD0
 1238      0CC0 D526 
 1238      0ED0 
 1239 1c8f D003 CB2E 	    .byte 0xD0, 3, 0xCB, 0x2E, 0x10, 0x1C, 3, 0x98, 0, 0x80
 1239      101C 0398 
 1239      0080 
 1240 1c99 0240 00C0 	    .byte 2, 0x40, 0, 0xC0, 5, 0xBB, 0x2E, 0x12, 0x1C, 1, 0xFF
 1240      05BB 2E12 
 1240      1C01 FF
 1241 1ca4 00B6 1E14 	    .byte 0, 0xB6, 0x1E, 0x14, 0xC0, 0xB6, 0x26, 0x16, 0xD0
68K GAS  src/xevious_sub.68k 			page 45


 1241      C0B6 2616 
 1241      D0
 1242 1cad B022 01AC 	    .byte 0xB0, 0x22, 1, 0xAC, 0x23, 0xAA, 0x1F, 0x18, 0xB0
 1242      23AA 1F18 
 1242      B0
 1243 1cb6 AA1F 1AA0 	    .byte 0xAA, 0x1F, 0x1A, 0xA0, 0x9F, 0x21, 0x1C, 0xA0, 0x9B
 1243      9F21 1CA0 
 1243      9B
 1244 1cbf 02E3 841D 	    .byte 2, 0xE3, 0x84, 0x1D, 4, 0x20, 0x83, 5, 0x77, 0x2D
 1244      0420 8305 
 1244      772D 
 1245 1cc9 06C0 6F3C 	    .byte 6, 0xC0, 0x6F, 0x3C, 0x10, 0x40, 0x6B, 0x3B, 0x12
 1245      1040 6B3B 
 1245      12
 1246 1cd2 606B 3B14 	    .byte 0x60, 0x6B, 0x3B, 0x14, 0x30, 0x67, 0x3A, 0x16, 0x50
 1246      3067 3A16 
 1246      50
 1247 1cdb 5F1F 1880 	    .byte 0x5F, 0x1F, 0x18, 0x80, 0x5D, 0x26, 0x1A, 0x70, 0x56
 1247      5D26 1A70 
 1247      56
 1248 1ce4 2E1C 140B 	    .byte 0x2E, 0x1C, 0x14, 0xB, 0x40, 0, 0x38, 4, 0x50, 6, 0x38
 1248      4000 3804 
 1248      5006 38
 1249 1cef 043C 0830 	    .byte 4, 0x3C, 8, 0x30, 4, 0x20, 0, 0x20, 0x10, 0x20, 0
 1249      0420 0020 
 1249      1020 00
 1250 1cfa 2010 2000 	    .byte 0x20, 0x10, 0x20, 0, 0x55, 0x26, 0x1E, 0x70, 0x4F
 1250      5526 1E70 
 1250      4F
 1251 1d03 2604 804F 	    .byte 0x26, 4, 0x80, 0x4F, 0x1D, 6, 0xD0, 0x48, 0x2E, 8
 1251      1D06 D048 
 1251      2E08 
 1252 1d0d D803 0800 	    .byte 0xD8, 3, 8, 0, 0x58, 0x18, 0xFF, 0, 0x41, 0x2E, 0xA
 1252      5818 FF00 
 1252      412E 0A
 1253 1d18 4802 7800 	    .byte 0x48, 2, 0x78, 0, 0xFF, 8, 0x38, 3, 0x33, 0x1F, 0xC
 1253      FF08 3803 
 1253      331F 0C
 1254 1d23 7030 0328 	    .byte 0x70, 0x30, 3, 0x28, 5, 0x27, 0x26, 0xE, 0x70, 0x25
 1254      0527 260E 
 1254      7025 
 1255 1d2d 2610 9023 	    .byte 0x26, 0x10, 0x90, 0x23, 0x26, 0x12, 0xB0, 0x20, 2
 1255      2612 B020 
 1255      02
 1256 1d36 E418 303F 	    .byte 0xE4, 0x18, 0x30, 0x3F, 0x18, 0x2F, 7, 0x18, 0x4E
 1256      182F 0718 
 1256      4E
 1257 1d3f 0F18 2820 	    .byte 0xF, 0x18, 0x28, 0x20, 0x17, 0x21, 0x14, 0xC0, 0x17
 1257      1721 14C0 
 1257      17
 1258 1d48 2118 A010 	    .byte 0x21, 0x18, 0xA0, 0x10, 5, 0xD
 1258      050D 
 1259               	    
 1260               	area_7_obj_tbl_super:
 1261 1d4e FF22 08F1 	    .byte 0xFF, 0x22, 8, 0xF1, 0x1F, 4, 0x80, 0xEF, 0x1E, 6
 1261      1F04 80EF 
 1261      1E06 
68K GAS  src/xevious_sub.68k 			page 46


 1262 1d58 80ED 2203 	    .byte 0x80, 0xED, 0x22, 3, 0xC9, 0x2E, 8, 0x70, 6, 0x60
 1262      C92E 0870 
 1262      0660 
 1263 1d62 0C60 1060 	    .byte 0xC, 0x60, 0x10, 0x60, 0x14, 0x60, 0x1C, 0x60, 0, 0x60
 1263      1460 1C60 
 1263      0060 
 1264 1d6c 04C6 2E0A 	    .byte 4, 0xC6, 0x2E, 0xA, 0x58, 6, 0x30, 4, 0x60, 0xC, 0x60
 1264      5806 3004 
 1264      600C 60
 1265 1d77 1060 1460 	    .byte 0x10, 0x60, 0x14, 0x60, 0x1C, 0x60, 0, 0xC3, 0x2E
 1265      1C60 00C3 
 1265      2E
 1266 1d80 0C40 0660 	    .byte 0xC, 0x40, 6, 0x60, 4, 0x60, 0xC, 0x60, 0x10, 0x60
 1266      0460 0C60 
 1266      1060 
 1267 1d8a 1460 1C60 	    .byte 0x14, 0x60, 0x1C, 0x60, 0, 0xC0, 0x2E, 0xE, 0x40, 6
 1267      00C0 2E0E 
 1267      4006 
 1268 1d94 3000 6004 	    .byte 0x30, 0, 0x60, 4, 0x60, 0xC, 0x60, 0x10, 0x60, 0x14
 1268      600C 6010 
 1268      6014 
 1269 1d9e 601C BD2E 	    .byte 0x60, 0x1C, 0xBD, 0x2E, 0x10, 0x40, 6, 0x60, 0, 0x60
 1269      1040 0660 
 1269      0060 
 1270 1da8 0460 0C60 	    .byte 4, 0x60, 0xC, 0x60, 0x10, 0x60, 0x14, 0x60, 0x1C, 0xBA
 1270      1060 1460 
 1270      1CBA 
 1271 1db2 2E12 5807 	    .byte 0x2E, 0x12, 0x58, 7, 0x30, 0x1C, 0x60, 0, 0x60, 4
 1271      301C 6000 
 1271      6004 
 1272 1dbc 600C 6010 	    .byte 0x60, 0xC, 0x60, 0x10, 0x60, 0x14, 0x60, 0x1C, 0xA1
 1272      6014 601C 
 1272      A1
 1273 1dc5 1E14 709F 	    .byte 0x1E, 0x14, 0x70, 0x9F, 0x26, 0x16, 0x60, 0x9E, 0x22
 1273      2616 609E 
 1273      22
 1274 1dce 029D 1F18 	    .byte 2, 0x9D, 0x1F, 0x18, 0x50, 0x9B, 0x1E, 0x1A, 0x40
 1274      509B 1E1A 
 1274      40
 1275 1dd7 8310 7481 	    .byte 0x83, 0x10, 0x74, 0x81, 0x26, 0x1C, 0x40, 0x7B, 0x1D
 1275      261C 407B 
 1275      1D
 1276 1de0 1E20 6C23 	    .byte 0x1E, 0x20, 0x6C, 0x23, 0x6B, 0x1E, 4, 0xB0, 0x6B
 1276      6B1E 04B0 
 1276      6B
 1277 1de9 1F06 806B 	    .byte 0x1F, 6, 0x80, 0x6B, 0x1E, 8, 0x50, 0x6B, 0x1F, 0xA
 1277      1E08 506B 
 1277      1F0A 
 1278 1df3 204F 2210 	    .byte 0x20, 0x4F, 0x22, 0x10, 0x43, 0x54, 0, 0x36, 0x1F
 1278      4354 0036 
 1278      1F
 1279 1dfc 0C48 361F 	    .byte 0xC, 0x48, 0x36, 0x1F, 0xE, 0x20, 0x2B, 0x3C, 0x10
 1279      0E20 2B3C 
 1279      10
 1280 1e05 C027 3C12 	    .byte 0xC0, 0x27, 0x3C, 0x12, 0xA0, 0x19, 0x11, 0x78, 0x17
 1280      A019 1178 
 1280      17
68K GAS  src/xevious_sub.68k 			page 47


 1281 1e0e 1176 0F1D 	    .byte 0x11, 0x76, 0xF, 0x1D, 0x14, 0xC0, 0xF, 0x23, 0xD
 1281      14C0 0F23 
 1281      0D
 1282               	    
 1283               	area_8_obj_tbl_super:
 1284 1e17 F303 F357 	    .byte 0xF3, 3, 0xF3, 0x57, 0xEE, 0x2E, 4, 0x14, 5, 8, 0
 1284      EE2E 0414 
 1284      0508 00
 1285 1e22 A008 300C 	    .byte 0xA0, 8, 0x30, 0xC, 0xFF, 0x10, 0xFF, 0, 0xEA, 5, 0xE5
 1285      FF10 FF00 
 1285      EA05 E5
 1286 1e2d 2606 30E5 	    .byte 0x26, 6, 0x30, 0xE5, 0x26, 8, 0xC8, 0xE2, 0x1F, 0xA
 1286      2608 C8E2 
 1286      1F0A 
 1287 1e37 48E2 1F0C 	    .byte 0x48, 0xE2, 0x1F, 0xC, 0xB0, 0xDF, 0x26, 0xE, 0x60
 1287      B0DF 260E 
 1287      60
 1288 1e40 DF26 1098 	    .byte 0xDF, 0x26, 0x10, 0x98, 0xCC, 0x1E, 0x12, 0x40, 0xC8
 1288      CC1E 1240 
 1288      C8
 1289 1e49 2614 60C8 	    .byte 0x26, 0x14, 0x60, 0xC8, 0x26, 0x16, 0x20, 0xC7, 0x21
 1289      2616 20C7 
 1289      21
 1290 1e52 1848 C31E 	    .byte 0x18, 0x48, 0xC3, 0x1E, 0x1C, 0x40, 0xBB, 0x57, 0xB3
 1290      1C40 BB57 
 1290      B3
 1291 1e5b 1F1E 48A8 	    .byte 0x1F, 0x1E, 0x48, 0xA8, 3, 0xA5, 0x2E, 4, 0xA0, 2
 1291      03A5 2E04 
 1291      A002 
 1292 1e65 B002 8000 	    .byte 0xB0, 2, 0x80, 0, 0xA5, 0x2E, 6, 0x74, 4, 0x78, 0
 1292      A52E 0674 
 1292      0478 00
 1293 1e70 5018 5008 	    .byte 0x50, 0x18, 0x50, 8, 0x80, 0, 0xA5, 0x2E, 8, 0x14
 1293      8000 A52E 
 1293      0814 
 1294 1e7a 0478 0050 	    .byte 4, 0x78, 0, 0x50, 8, 0x50, 0x18, 0x80, 0, 0x9B, 5
 1294      0850 1880 
 1294      009B 05
 1295 1e85 932E 0A7C 	    .byte 0x93, 0x2E, 0xA, 0x7C, 5, 0xA0, 0, 0xF0, 0x10, 0x30
 1295      05A0 00F0 
 1295      1030 
 1296 1e8f 0F30 1F80 	    .byte 0xF, 0x30, 0x1F, 0x80, 0, 0x93, 0x1F, 0xC, 0x50, 0x93
 1296      0093 1F0C 
 1296      5093 
 1297 1e99 260E 4093 	    .byte 0x26, 0xE, 0x40, 0x93, 0x2E, 0x10, 0x14, 3, 0xAC, 0
 1297      2E10 1403 
 1297      AC00 
 1298 1ea3 FF10 8000 	    .byte 0xFF, 0x10, 0x80, 0, 0x83, 3, 0x7F, 0x2E, 0x12, 0x84
 1298      8303 7F2E 
 1298      1284 
 1299 1ead 0750 00C0 	    .byte 7, 0x50, 0, 0xC0, 0x10, 0x50, 0x10, 0x28, 0xB, 0x50
 1299      1050 1028 
 1299      0B50 
 1300 1eb7 1070 0C60 	    .byte 0x10, 0x70, 0xC, 0x60, 0xD, 0x77, 0x1D, 0x14, 0x40
 1300      0D77 1D14 
 1300      40
 1301 1ec0 7305 7326 	    .byte 0x73, 5, 0x73, 0x26, 4, 0x58, 0x73, 0x1F, 6, 0x48
68K GAS  src/xevious_sub.68k 			page 48


 1301      0458 731F 
 1301      0648 
 1302 1eca 6D2E 1614 	    .byte 0x6D, 0x2E, 0x16, 0x14, 1, 0x80, 0, 0x6A, 0x2E, 0x18
 1302      0180 006A 
 1302      2E18 
 1303 1ed4 1401 8000 	    .byte 0x14, 1, 0x80, 0, 0x67, 0x2E, 0x1A, 0x14, 1, 0x80
 1303      672E 1A14 
 1303      0180 
 1304 1ede 0064 351C 	    .byte 0, 0x64, 0x35, 0x1C, 0x14, 0x61, 0x35, 0x1E, 0x14
 1304      1461 351E 
 1304      14
 1305 1ee7 4D5C 0250 	    .byte 0x4D, 0x5C, 2, 0x50, 0x47, 0x2E, 8, 0x80, 6, 8, 0
 1305      472E 0880 
 1305      0608 00
 1306 1ef2 5808 6000 	    .byte 0x58, 8, 0x60, 0, 0x60, 2, 0x80, 0, 0x60, 4, 0x47
 1306      6002 8000 
 1306      6004 47
 1307 1efd 2E0A 6808 	    .byte 0x2E, 0xA, 0x68, 8, 8, 0, 0x88, 8, 0x60, 0, 0x60, 0x1C
 1307      0800 8808 
 1307      6000 601C 
 1308 1f09 3800 1812 	    .byte 0x38, 0, 0x18, 0x12, 0xA8, 0x14, 0x80, 0, 0x47, 0x2E
 1308      A814 8000 
 1308      472E 
 1309 1f13 0C50 0308 	    .byte 0xC, 0x50, 3, 8, 0, 0x78, 0x18, 0x80, 0, 0x3F, 2, 0xE5
 1309      0078 1880 
 1309      003F 02E5 
 1310 1f1f 371B 0EB8 	    .byte 0x37, 0x1B, 0xE, 0xB8, 0x37, 0x1B, 0x10, 0x48, 0x33
 1310      371B 1048 
 1310      33
 1311 1f28 0527 2E12 	    .byte 5, 0x27, 0x2E, 0x12, 0x50, 2, 0x68, 4, 0xE0, 8, 0x24
 1311      5002 6804 
 1311      E008 24
 1312 1f33 2E14 3802 	    .byte 0x2E, 0x14, 0x38, 2, 0x98, 4, 0xE0, 8, 0x23, 2, 0xE6
 1312      9804 E008 
 1312      2302 E6
 1313 1f3e 212E 1620 	    .byte 0x21, 0x2E, 0x16, 0x20, 2, 0xC8, 4, 0xE0, 8, 0x1F
 1313      02C8 04E0 
 1313      081F 
 1314 1f48 2E18 9003 	    .byte 0x2E, 0x18, 0x90, 3, 8, 0x1C, 0xE0, 0, 0xD0, 8, 0x1C
 1314      081C E000 
 1314      D008 1C
 1315 1f53 2E1A A803 	    .byte 0x2E, 0x1A, 0xA8, 3, 0x38, 0x1C, 0xE0, 0, 0xD0, 8
 1315      381C E000 
 1315      D008 
 1316 1f5d 192E 1CC0 	    .byte 0x19, 0x2E, 0x1C, 0xC0, 3, 0x68, 0x1C, 0xE0, 0, 0xD0
 1316      0368 1CE0 
 1316      00D0 
 1317 1f67 0819 1F1E 	    .byte 8, 0x19, 0x1F, 0x1E, 0x88, 0x19, 0x1F, 4, 0x68, 0x19
 1317      8819 1F04 
 1317      6819 
 1318 1f71 1F06 4817 	    .byte 0x1F, 6, 0x48, 0x17, 5, 0x13, 0x1B, 8, 0x88, 0x13
 1318      0513 1B08 
 1318      8813 
 1319 1f7b 1B0C 480D 	    .byte 0x1B, 0xC, 0x48, 0xD
 1320               	    
 1321               	area_9_obj_tbl_super:
 1322 1f7f FB02 E7F5 	    .byte 0xFB, 2, 0xE7, 0xF5, 0x1D, 0x10, 0x70, 0xF3, 0x1D
68K GAS  src/xevious_sub.68k 			page 49


 1322      1D10 70F3 
 1322      1D
 1323 1f88 1250 F11D 	    .byte 0x12, 0x50, 0xF1, 0x1D, 0x14, 0x30, 0xEF, 0x1D, 0x16
 1323      1430 EF1D 
 1323      16
 1324 1f91 10EB 05E3 	    .byte 0x10, 0xEB, 5, 0xE3, 2, 0xE8, 0xD5, 0x21, 0x18, 0x50
 1324      02E8 D521 
 1324      1850 
 1325 1f9b D305 D157 	    .byte 0xD3, 5, 0xD1, 0x57, 0xCF, 3, 0xC7, 3, 0xC3, 2, 0xE9
 1325      CF03 C703 
 1325      C302 E9
 1326 1fa6 BF05 B333 	    .byte 0xBF, 5, 0xB3, 0x33, 0x9F, 0x34, 0x87, 0x18, 0x76
 1326      9F34 8718 
 1326      76
 1327 1faf 834C 7302 	    .byte 0x83, 0x4C, 0x73, 2, 0xEA, 0x63, 5, 0x63, 0x57, 0x5B
 1327      EA63 0563 
 1327      575B 
 1328 1fb9 02EB 4B05 	    .byte 2, 0xEB, 0x4B, 5, 0x3F, 3, 0x2F, 3, 0x20, 0x4D, 0x1F
 1328      3F03 2F03 
 1328      204D 1F
 1329 1fc4 0310 050D 	    .byte 3, 0x10, 5, 0xD
 1330               	    
 1331               	area_10_obj_tbl_super:
 1332 1fc8 FF03 F705 	    .byte 0xFF, 3, 0xF7, 5, 0xF3, 0x57, 0xEF, 3, 0xE3, 5, 0xDB
 1332      F357 EF03 
 1332      E305 DB
 1333 1fd3 03CF 05C6 	    .byte 3, 0xCF, 5, 0xC6, 0x2E, 0x1C, 0xD8, 8, 0x60, 0x14
 1333      2E1C D808 
 1333      6014 
 1334 1fdd 6004 6014 	    .byte 0x60, 4, 0x60, 0x14, 0x60, 4, 0x60, 0x14, 0x60, 4
 1334      6004 6014 
 1334      6004 
 1335 1fe7 6014 6004 	    .byte 0x60, 0x14, 0x60, 4, 0xC6, 0x2E, 0x1E, 0x98, 8, 0x60
 1335      C62E 1E98 
 1335      0860 
 1336 1ff1 1060 0060 	    .byte 0x10, 0x60, 0, 0x60, 0x10, 0x60, 0, 0x60, 0x10, 0x60
 1336      1060 0060 
 1336      1060 
 1337 1ffb 0060 1060 	    .byte 0, 0x60, 0x10, 0x60, 0, 0xC6, 0x2E, 4, 0x58, 8, 0x60
 1337      00C6 2E04 
 1337      5808 60
 1338 2006 0C60 1C60 	    .byte 0xC, 0x60, 0x1C, 0x60, 0xC, 0x60, 0x1C, 0x60, 0xC
 1338      0C60 1C60 
 1338      0C
 1339 200f 601C 600C 	    .byte 0x60, 0x1C, 0x60, 0xC, 0x60, 0x1C, 0xBE, 0x2E, 6, 0xB8
 1339      601C BE2E 
 1339      06B8 
 1340 2019 0840 0860 	    .byte 8, 0x40, 8, 0x60, 0x18, 0x60, 8, 0x60, 0x18, 0x60
 1340      1860 0860 
 1340      1860 
 1341 2023 0860 1860 	    .byte 8, 0x60, 0x18, 0x60, 8, 0x60, 0x18, 0xBE, 0x2E, 8
 1341      0860 18BE 
 1341      2E08 
 1342 202d 7808 4018 	    .byte 0x78, 8, 0x40, 0x18, 0x60, 8, 0x60, 0x18, 0x60, 8
 1342      6008 6018 
 1342      6008 
 1343 2037 6018 6008 	    .byte 0x60, 0x18, 0x60, 8, 0x60, 0x18, 0x60, 8, 0xB8, 0x2E
68K GAS  src/xevious_sub.68k 			page 50


 1343      6018 6008 
 1343      B82E 
 1344 2041 0AC8 0740 	    .byte 0xA, 0xC8, 7, 0x40, 0x1C, 0x60, 0xC, 0x60, 0x1C, 0x60
 1344      1C60 0C60 
 1344      1C60 
 1345 204b 0C60 1C60 	    .byte 0xC, 0x60, 0x1C, 0x60, 0xC, 0x60, 0x1C, 0xB8, 0x2E
 1345      0C60 1CB8 
 1345      2E
 1346 2054 0C98 0740 	    .byte 0xC, 0x98, 7, 0x40, 0, 0x60, 0x10, 0x60, 0, 0x60, 0x10
 1346      0060 1060 
 1346      0060 10
 1347 205f 6000 6010 	    .byte 0x60, 0, 0x60, 0x10, 0x60, 0, 0xB8, 0x2E, 0xE, 0x68
 1347      6000 B82E 
 1347      0E68 
 1348 2069 0740 0460 	    .byte 7, 0x40, 4, 0x60, 0x14, 0x60, 4, 0x60, 0x14, 0x60
 1348      1460 0460 
 1348      1460 
 1349 2073 0460 1460 	    .byte 4, 0x60, 0x14, 0x60, 4, 0xA9, 0x1E, 0x10, 0xB0, 0xA9
 1349      04A9 1E10 
 1349      B0A9 
 1350 207d 1E12 90A7 	    .byte 0x1E, 0x12, 0x90, 0xA7, 0x1E, 0x14, 0xA0, 0xA5, 0x1E
 1350      1E14 A0A5 
 1350      1E
 1351 2086 16B0 A51E 	    .byte 0x16, 0xB0, 0xA5, 0x1E, 0x18, 0x90, 0x9B, 0x18, 0x76
 1351      1890 9B18 
 1351      76
 1352 208f 911F 1A40 	    .byte 0x91, 0x1F, 0x1A, 0x40, 0x8F, 0x1F, 0x1C, 0x40, 0x8B
 1352      8F1F 1C40 
 1352      8B
 1353 2098 1876 871E 	    .byte 0x18, 0x76, 0x87, 0x1E, 0x1E, 0x50, 0x87, 0x1E, 4
 1353      1E50 871E 
 1353      04
 1354 20a1 407B 1876 	    .byte 0x40, 0x7B, 0x18, 0x76, 0x6F, 0x1F, 6, 0xC0, 0x6F
 1354      6F1F 06C0 
 1354      6F
 1355 20aa 1E08 A06F 	    .byte 0x1E, 8, 0xA0, 0x6F, 0x1F, 0xA, 0x80, 0x64, 0x2E, 0xC
 1355      1F0A 8064 
 1355      2E0C 
 1356 20b4 9810 8018 	    .byte 0x98, 0x10, 0x80, 0x18, 0x80, 0x10, 0x80, 9, 0x20
 1356      8010 8009 
 1356      20
 1357 20bd 0C40 1820 	    .byte 0xC, 0x40, 0x18, 0x20, 0x1A, 0x10, 0x18, 0x28, 0x10
 1357      1A10 1828 
 1357      10
 1358 20c6 1008 2006 	    .byte 0x10, 8, 0x20, 6, 0x48, 8, 0x18, 0xC, 0x70, 0x18, 0xA0
 1358      4808 180C 
 1358      7018 A0
 1359 20d1 1398 0880 	    .byte 0x13, 0x98, 8, 0x80, 4, 0x47, 0x1D, 0xE, 0xC0, 0x47
 1359      0447 1D0E 
 1359      C047 
 1360 20db 1D10 A047 	    .byte 0x1D, 0x10, 0xA0, 0x47, 0x1D, 0x12, 0x80, 0x47, 0x1D
 1360      1D12 8047 
 1360      1D
 1361 20e4 1460 431D 	    .byte 0x14, 0x60, 0x43, 0x1D, 0x16, 0xC0, 0x43, 0x1D, 0x18
 1361      16C0 431D 
 1361      18
 1362 20ed A043 1D1A 	    .byte 0xA0, 0x43, 0x1D, 0x1A, 0x80, 0x43, 0x1D, 0x1C, 0x60
68K GAS  src/xevious_sub.68k 			page 51


 1362      8043 1D1C 
 1362      60
 1363 20f6 361E 1E80 	    .byte 0x36, 0x1E, 0x1E, 0x80, 0x36, 0x26, 4, 0x60, 0x36
 1363      3626 0460 
 1363      36
 1364 20ff 1E06 4030 	    .byte 0x1E, 6, 0x40, 0x30, 0x59, 0x7E, 0x2B, 0x1F, 8, 0x50
 1364      597E 2B1F 
 1364      0850 
 1365 2109 2120 0A80 	    .byte 0x21, 0x20, 0xA, 0x80, 0x1B, 0x20, 0xE, 0x80, 0x19
 1365      1B20 0E80 
 1365      19
 1366 2112 1B12 D019 	    .byte 0x1B, 0x12, 0xD0, 0x19, 0x1B, 0x14, 0x20, 0x17, 0x16
 1366      1B14 2017 
 1366      16
 1367 211b 7416 1676 	    .byte 0x74, 0x16, 0x16, 0x76, 0x13, 0x1B, 0x16, 0xD0, 0x13
 1367      131B 16D0 
 1367      13
 1368 2124 1B18 200D 	    .byte 0x1B, 0x18, 0x20, 0xD
 1369               	    
 1370               	area_11_obj_tbl_super:
 1371 2128 FB11 74F3 	    .byte 0xFB, 0x11, 0x74, 0xF3, 0x22, 8, 0xE9, 0x2D, 4, 0x60
 1371      2208 E92D 
 1371      0460 
 1372 2132 E622 08E4 	    .byte 0xE6, 0x22, 8, 0xE4, 0x2E, 0xE, 0x9C, 1, 0x80, 0, 0xDC
 1372      2E0E 9C01 
 1372      8000 DC
 1373 213d 2E10 2C02 	    .byte 0x2E, 0x10, 0x2C, 2, 0xF8, 0, 0x40, 0x1C, 0xCB, 0x26
 1373      F800 401C 
 1373      CB26 
 1374 2147 12B0 CB1F 	    .byte 0x12, 0xB0, 0xCB, 0x1F, 0x14, 0xA0, 0xCB, 0x2E, 0x16
 1374      14A0 CB2E 
 1374      16
 1375 2150 2C07 7000 	    .byte 0x2C, 7, 0x70, 0, 0xE8, 0x10, 0x20, 0x12, 0xB8, 0x10
 1375      E810 2012 
 1375      B810 
 1376 215a B800 2002 	    .byte 0xB8, 0, 0x20, 2, 0x20, 0, 0xC3, 0x23, 0xC3, 0x35
 1376      2000 C323 
 1376      C335 
 1377 2164 187C BF35 	    .byte 0x18, 0x7C, 0xBF, 0x35, 0x1A, 0x7C, 0xBB, 0x35, 0x1C
 1377      1A7C BB35 
 1377      1C
 1378 216d 7CB7 391E 	    .byte 0x7C, 0xB7, 0x39, 0x1E, 0x7C, 0xAF, 0x3B, 4, 0x24
 1378      7CAF 3B04 
 1378      24
 1379 2176 A73B 0624 	    .byte 0xA7, 0x3B, 6, 0x24, 0xA3, 0x22, 0xC, 0x9B, 3, 0x8D
 1379      A322 0C9B 
 1379      038D 
 1380 2180 1D08 808B 	    .byte 0x1D, 8, 0x80, 0x8B, 5, 0x8B, 0x1D, 0xA, 0x70, 0x84
 1380      058B 1D0A 
 1380      7084 
 1381 218a 2204 772E 	    .byte 0x22, 4, 0x77, 0x2E, 0xC, 0x34, 9, 0x60, 0, 0xA0, 0x10
 1381      0C34 0960 
 1381      00A0 10
 1382 2195 280D 5010 	    .byte 0x28, 0xD, 0x50, 0x10, 0x70, 0xC, 0x60, 0xD, 0x40
 1382      700C 600D 
 1382      40
 1383 219e 0630 0420 	    .byte 6, 0x30, 4, 0x20, 8, 0x75, 0x1F, 0xE, 0x60, 0x73, 0x1E
68K GAS  src/xevious_sub.68k 			page 52


 1383      0875 1F0E 
 1383      6073 1E
 1384 21a9 1070 7323 	    .byte 0x10, 0x70, 0x73, 0x23, 0x71, 0x1F, 0x12, 0x80, 0x6F
 1384      711F 1280 
 1384      6F
 1385 21b2 1E14 906D 	    .byte 0x1E, 0x14, 0x90, 0x6D, 0x1F, 0x16, 0xA0, 0x6B, 0x1E
 1385      1F16 A06B 
 1385      1E
 1386 21bb 18B0 691F 	    .byte 0x18, 0xB0, 0x69, 0x1F, 0x1A, 0xC0, 0x67, 0x1E, 0x1C
 1386      1AC0 671E 
 1386      1C
 1387 21c4 D067 5763 	    .byte 0xD0, 0x67, 0x57, 0x63, 3, 0x63, 3, 0x53, 0x22, 0x10
 1387      0363 0353 
 1387      2210 
 1388 21ce 4303 3B05 	    .byte 0x43, 3, 0x3B, 5, 0x2B, 0x2E, 0x1E, 0xE0, 5, 8, 0
 1388      2B2E 1EE0 
 1388      0508 00
 1389 21d9 6018 201C 	    .byte 0x60, 0x18, 0x20, 0x1C, 0xD8, 0x18, 0x20, 0x14, 0x27
 1389      D818 2014 
 1389      27
 1390 21e2 2104 6823 	    .byte 0x21, 4, 0x68, 0x23, 0x23, 0x23, 2, 0xEC, 0x1D, 0x1D
 1390      2323 02EC 
 1390      1D1D 
 1391 21ec 0820 1D1F 	    .byte 8, 0x20, 0x1D, 0x1F, 0xA, 0xD0, 0x1D, 0x1F, 0xC, 0xA0
 1391      0AD0 1D1F 
 1391      0CA0 
 1392 21f6 1B1D 0E20 	    .byte 0x1B, 0x1D, 0xE, 0x20, 0x19, 0x1D, 0x10, 0x40, 0x17
 1392      191D 1040 
 1392      17
 1393 21ff 1E12 D017 	    .byte 0x1E, 0x12, 0xD0, 0x17, 0x1E, 0x14, 0xA0, 0x17, 0x1D
 1393      1E14 A017 
 1393      1D
 1394 2208 1640 1323 	    .byte 0x16, 0x40, 0x13, 0x23, 0x13, 5, 0xD
 1394      1305 0D
 1395               	    
 1396               	area_12_obj_tbl_super:
 1397 220f FF30 0FFF 	    .byte 0xFF, 0x30, 0xF, 0xFF, 0x29, 0xF, 0xFF, 0x2B, 3, 0xFF
 1397      290F FF2B 
 1397      03FF 
 1398 2219 2A03 F357 	    .byte 0x2A, 3, 0xF3, 0x57, 0xEE, 0x2E, 4, 0x14, 9, 8, 0
 1398      EE2E 0414 
 1398      0908 00
 1399 2224 A008 300C 	    .byte 0xA0, 8, 0x30, 0xC, 0x48, 0x10, 0x30, 0, 0x50, 0x10
 1399      4810 3000 
 1399      5010 
 1400 222e 6800 301C 	    .byte 0x68, 0, 0x30, 0x1C, 0x20, 0x18, 0xE5, 0x1B, 6, 0xC0
 1400      2018 E51B 
 1400      06C0 
 1401 2238 E51F 08B0 	    .byte 0xE5, 0x1F, 8, 0xB0, 0xE5, 0x1F, 0xA, 0x48, 0xE5, 0x1B
 1401      E51F 0A48 
 1401      E51B 
 1402 2242 0C38 E31F 	    .byte 0xC, 0x38, 0xE3, 0x1F, 0xE, 0xC0, 0xE3, 0x1B, 0x10
 1402      0EC0 E31B 
 1402      10
 1403 224b B0E3 1B12 	    .byte 0xB0, 0xE3, 0x1B, 0x12, 0x48, 0xE3, 0x1F, 0x14, 0x38
 1403      48E3 1F14 
 1403      38
68K GAS  src/xevious_sub.68k 			page 53


 1404 2254 DC2E 167C 	    .byte 0xDC, 0x2E, 0x16, 0x7C, 4, 8, 0x10, 0x78, 0, 0x50
 1404      0408 1078 
 1404      0050 
 1405 225e 1040 00C9 	    .byte 0x10, 0x40, 0, 0xC9, 0x35, 0x18, 0x48, 0xC9, 0x35
 1405      3518 48C9 
 1405      35
 1406 2267 1A38 C735 	    .byte 0x1A, 0x38, 0xC7, 0x35, 0x1C, 0x48, 0xC7, 0x35, 0x1E
 1406      1C48 C735 
 1406      1E
 1407 2270 38BD 1E04 	    .byte 0x38, 0xBD, 0x1E, 4, 0xB0, 0xBB, 0x1E, 6, 0xB0, 0xBB
 1407      B0BB 1E06 
 1407      B0BB 
 1408 227a 1E08 90B9 	    .byte 0x1E, 8, 0x90, 0xB9, 0x1E, 0xA, 0x90, 0xB3, 0x2E, 0xC
 1408      1E0A 90B3 
 1408      2E0C 
 1409 2284 CC01 2000 	    .byte 0xCC, 1, 0x20, 0, 0xA7, 0x2E, 0xE, 0x74, 4, 0x58, 0
 1409      A72E 0E74 
 1409      0458 00
 1410 228f A018 A008 	    .byte 0xA0, 0x18, 0xA0, 8, 0x20, 0, 0xA3, 0x2E, 0x10, 0x14
 1410      2000 A32E 
 1410      1014 
 1411 2299 0120 00A3 	    .byte 1, 0x20, 0, 0xA3, 0x57, 0xA1, 0x2E, 0x12, 0x14, 1
 1411      57A1 2E12 
 1411      1401 
 1412 22a3 2000 9703 	    .byte 0x20, 0, 0x97, 3, 0x93, 0x2E, 0x14, 0x7C, 2, 0x98
 1412      932E 147C 
 1412      0298 
 1413 22ad 0020 028D 	    .byte 0, 0x20, 2, 0x8D, 0x1D, 0x16, 0x60, 0x8D, 0x1D, 0x18
 1413      1D16 608D 
 1413      1D18 
 1414 22b7 508B 1D1A 	    .byte 0x50, 0x8B, 0x1D, 0x1A, 0x60, 0x8B, 0x1D, 0x1C, 0x50
 1414      608B 1D1C 
 1414      50
 1415 22c0 8705 8303 	    .byte 0x87, 5, 0x83, 3, 0x77, 0x1E, 0x1E, 0x60, 0x77, 0x1F
 1415      771E 1E60 
 1415      771F 
 1416 22ca 0450 7305 	    .byte 4, 0x50, 0x73, 5, 0x73, 0x2E, 6, 0x14, 4, 0x70, 0
 1416      732E 0614 
 1416      0470 00
 1417 22d5 E010 A010 	    .byte 0xE0, 0x10, 0xA0, 0x10, 0x20, 0, 0x6F, 0x1F, 8, 0x60
 1417      2000 6F1F 
 1417      0860 
 1418 22df 6F1E 0A50 	    .byte 0x6F, 0x1E, 0xA, 0x50, 0x6B, 3, 0x68, 0x30, 7, 0x5B
 1418      6B03 6830 
 1418      075B 
 1419 22e9 0555 1B0C 	    .byte 5, 0x55, 0x1B, 0xC, 0xA8, 0x47, 0x2E, 0xE, 0x78, 3
 1419      A847 2E0E 
 1419      7803 
 1420 22f3 0800 C818 	    .byte 8, 0, 0xC8, 0x18, 0x20, 0, 0x47, 0x2E, 0x10, 0x90
 1420      2000 472E 
 1420      1090 
 1421 22fd 0308 00F8 	    .byte 3, 8, 0, 0xF8, 0x18, 0x20, 0, 0x47, 0x2E, 0x12, 0xA8
 1421      1820 0047 
 1421      2E12 A8
 1422 2308 0408 00E0 	    .byte 4, 8, 0, 0xE0, 0x18, 0x48, 0x18, 0x20, 0, 0x37, 0x1F
 1422      1848 1820 
 1422      0037 1F
68K GAS  src/xevious_sub.68k 			page 54


 1423 2313 14C0 371F 	    .byte 0x14, 0xC0, 0x37, 0x1F, 0x16, 0xB0, 0x33, 2, 0xED
 1423      16B0 3302 
 1423      ED
 1424 231c 301B 1868 	    .byte 0x30, 0x1B, 0x18, 0x68, 0x2E, 0x1B, 0x1A, 0x58, 0x2C
 1424      2E1B 1A58 
 1424      2C
 1425 2325 1B1C 482A 	    .byte 0x1B, 0x1C, 0x48, 0x2A, 0x1B, 0x1E, 0x38, 0x27, 0x3C
 1425      1B1E 3827 
 1425      3C
 1426 232e 0414 233B 	    .byte 4, 0x14, 0x23, 0x3B, 6, 0x14, 0x1F, 0x3B, 8, 0x14
 1426      0614 1F3B 
 1426      0814 
 1427 2338 1B3C 0A14 	    .byte 0x1B, 0x3C, 0xA, 0x14, 0x18, 0x2E, 0xC, 0x88, 8, 0x40
 1427      182E 0C88 
 1427      0840 
 1428 2342 0080 1880 	    .byte 0, 0x80, 0x18, 0x80, 0x10, 0x80, 8, 0x80, 0, 0x80
 1428      1080 0880 
 1428      0080 
 1429 234c 1880 1080 	    .byte 0x18, 0x80, 0x10, 0x80, 8, 0x18, 0x2E, 0xE, 0x48, 8
 1429      0818 2E0E 
 1429      4808 
 1430 2356 4010 8008 	    .byte 0x40, 0x10, 0x80, 8, 0x80, 0, 0x80, 0x18, 0x80, 0x10
 1430      8000 8018 
 1430      8010 
 1431 2360 8008 8000 	    .byte 0x80, 8, 0x80, 0, 0x80, 0x18, 0x17, 0x21, 0x10, 0x70
 1431      8018 1721 
 1431      1070 
 1432 236a 1705 0D   	    .byte 0x17, 5, 0xD
 1433               	    
 1434               	area_13_obj_tbl_super:
 1435 236d F71B 1420 	    .byte 0xF7, 0x1B, 0x14, 0x20, 0xF3, 0x1B, 0x16, 0xA0, 0xF3
 1435      F31B 16A0 
 1435      F3
 1436 2376 1B18 70ED 	    .byte 0x1B, 0x18, 0x70, 0xED, 0x1F, 0x1A, 0xA0, 0xEB, 0x1F
 1436      1F1A A0EB 
 1436      1F
 1437 237f 1C90 E91F 	    .byte 0x1C, 0x90, 0xE9, 0x1F, 0x1E, 0x80, 0xE7, 0x1F, 4
 1437      1E80 E71F 
 1437      04
 1438 2388 70E3 57DF 	    .byte 0x70, 0xE3, 0x57, 0xDF, 0x1B, 6, 0xC0, 0xD9, 0x1B
 1438      1B06 C0D9 
 1438      1B
 1439 2391 08C0 D303 	    .byte 8, 0xC0, 0xD3, 3, 0xBB, 5, 0xB1, 0x21, 0xA, 0xB0, 0xB1
 1439      BB05 B121 
 1439      0AB0 B1
 1440 239c 210E 50AB 	    .byte 0x21, 0xE, 0x50, 0xAB, 3, 0xA1, 0x3E, 0x12, 0x90, 0x9D
 1440      03A1 3E12 
 1440      909D 
 1441 23a6 3E14 7099 	    .byte 0x3E, 0x14, 0x70, 0x99, 0x40, 0x16, 0x50, 0x95, 0x3E
 1441      4016 5095 
 1441      3E
 1442 23af 1830 9305 	    .byte 0x18, 0x30, 0x93, 5, 0x8D, 0x40, 0x1A, 0x50, 0x89
 1442      8D40 1A50 
 1442      89
 1443 23b8 3E1C 7085 	    .byte 0x3E, 0x1C, 0x70, 0x85, 0x3E, 0x1E, 0x90, 0x81, 0x3E
 1443      3E1E 9081 
 1443      3E
68K GAS  src/xevious_sub.68k 			page 55


 1444 23c1 04B0 7B03 	    .byte 4, 0xB0, 0x7B, 3, 0x71, 0x1F, 6, 0xD0, 0x6F, 0x26
 1444      711F 06D0 
 1444      6F26 
 1445 23cb 08C0 6D1F 	    .byte 8, 0xC0, 0x6D, 0x1F, 0xA, 0xB0, 0x6B, 0x26, 0xC, 0xA0
 1445      0AB0 6B26 
 1445      0CA0 
 1446 23d5 691F 0E90 	    .byte 0x69, 0x1F, 0xE, 0x90, 0x63, 5, 0x5F, 0x57, 0x5B, 2
 1446      6305 5F57 
 1446      5B02 
 1447 23df EE43 0540 	    .byte 0xEE, 0x43, 5, 0x40, 0x1D, 0x10, 0x30, 0x40, 0x1D
 1447      1D10 3040 
 1447      1D
 1448 23e8 1220 3B03 	    .byte 0x12, 0x20, 0x3B, 3, 0x36, 0x1B, 0x14, 0xC0, 0x25
 1448      361B 14C0 
 1448      25
 1449 23f1 2E16 E002 	    .byte 0x2E, 0x16, 0xE0, 2, 0xC0, 0x18, 0xC0, 8, 0x25, 0x2E
 1449      C018 C008 
 1449      252E 
 1450 23fb 1810 02C0 	    .byte 0x18, 0x10, 2, 0xC0, 8, 0xC0, 0x18, 0x23, 0x2E, 0x1A
 1450      08C0 1823 
 1450      2E1A 
 1451 2405 D002 A018 	    .byte 0xD0, 2, 0xA0, 0x18, 0xA0, 8, 0x23, 0x2E, 0x1C, 0x20
 1451      A008 232E 
 1451      1C20 
 1452 240f 02A0 08A0 	    .byte 2, 0xA0, 8, 0xA0, 0x18, 0x23, 5, 0x1B, 2, 0xEF, 0xE
 1452      1823 051B 
 1452      02EF 0E
 1453 241a 050D      	    .byte 5, 0xD
 1454               	    
 1455               	area_14_obj_tbl_super:
 1456 241c FF02 F0F7 	    .byte 0xFF, 2, 0xF0, 0xF7, 5, 0xF3, 0x22, 2, 0xE7, 0x23
 1456      05F3 2202 
 1456      E723 
 1457 2426 E702 F1E3 	    .byte 0xE7, 2, 0xF1, 0xE3, 0x4C, 0xDF, 5, 0xDB, 2, 0xF2
 1457      4CDF 05DB 
 1457      02F2 
 1458 2430 D505 CB02 	    .byte 0xD5, 5, 0xCB, 2, 0xF3, 0xC5, 5, 0xBB, 2, 0xEC, 0xBB
 1458      F3C5 05BB 
 1458      02EC BB
 1459 243b 4DAB 05A1 	    .byte 0x4D, 0xAB, 5, 0xA1, 0x33, 0x8F, 0x34, 0x7F, 2, 0xF4
 1459      338F 347F 
 1459      02F4 
 1460 2445 7705 7318 	    .byte 0x77, 5, 0x73, 0x18, 0x76, 0x67, 0x4C, 0x67, 2, 0xF3
 1460      7667 4C67 
 1460      02F3 
 1461 244f 6505 5B02 	    .byte 0x65, 5, 0x5B, 2, 0xF5, 0x55, 5, 0x4B, 3, 0x3B, 5
 1461      F555 054B 
 1461      033B 05
 1462 245a 3757 334D 	    .byte 0x37, 0x57, 0x33, 0x4D, 0x33, 3, 0x30, 0x5B, 0, 0x40
 1462      3303 305B 
 1462      0040 
 1463 2464 2305 1B03 	    .byte 0x23, 5, 0x1B, 3, 0x1F, 5, 0xD
 1463      1F05 0D
 1464               	    
 1465               	area_15_obj_tbl_super:
 1466 246b FF02 F6F3 	    .byte 0xFF, 2, 0xF6, 0xF3, 5, 0xEF, 0x2E, 4, 0x3C, 5, 0x80
 1466      05EF 2E04 
68K GAS  src/xevious_sub.68k 			page 56


 1466      3C05 80
 1467 2476 0080 1070 	    .byte 0, 0x80, 0x10, 0x70, 0, 0x70, 0x10, 0x70, 0, 0xEE
 1467      0070 1070 
 1467      00EE 
 1468 2480 1D06 20EE 	    .byte 0x1D, 6, 0x20, 0xEE, 0x26, 8, 0x80, 0xE6, 0x2E, 0xA
 1468      2608 80E6 
 1468      2E0A 
 1469 248a 3C03 7000 	    .byte 0x3C, 3, 0x70, 0, 0x70, 0x10, 0x70, 0, 0xE5, 0x1F
 1469      7010 7000 
 1469      E51F 
 1470 2494 0C80 DE2E 	    .byte 0xC, 0x80, 0xDE, 0x2E, 0xE, 0x3C, 3, 0x60, 0, 0x60
 1470      0E3C 0360 
 1470      0060 
 1471 249e 1060 00D7 	    .byte 0x10, 0x60, 0, 0xD7, 0x1F, 0x10, 0xC0, 0xD7, 0x2E
 1471      1F10 C0D7 
 1471      2E
 1472 24a7 1226 0650 	    .byte 0x12, 0x26, 6, 0x50, 2, 0x78, 0x12, 0x18, 0x10, 0x18
 1472      0278 1218 
 1472      1018 
 1473 24b1 0080 0220 	    .byte 0, 0x80, 2, 0x20, 0, 0xD5, 0x1F, 0x14, 0xD0, 0xD2
 1473      00D5 1F14 
 1473      D0D2 
 1474 24bb 2616 50CD 	    .byte 0x26, 0x16, 0x50, 0xCD, 0x2E, 0x18, 0x1C, 4, 0x40
 1474      2E18 1C04 
 1474      40
 1475 24c4 00A0 10D8 	    .byte 0, 0xA0, 0x10, 0xD8, 0, 0x20, 2, 0xC6, 0x1F, 4, 0x50
 1475      0020 02C6 
 1475      1F04 50
 1476 24cf C303 C22E 	    .byte 0xC3, 3, 0xC2, 0x2E, 0x1A, 0x1C, 3, 0x80, 0, 0xA0
 1476      1A1C 0380 
 1476      00A0 
 1477 24d9 0020 02BE 	    .byte 0, 0x20, 2, 0xBE, 0x35, 0x1C, 0x1C, 0xBA, 0x3B, 0x1E
 1477      351C 1CBA 
 1477      3B1E 
 1478 24e3 1CB6 1F06 	    .byte 0x1C, 0xB6, 0x1F, 6, 0xD0, 0xB6, 0x26, 8, 0xC0, 0xB5
 1478      D0B6 2608 
 1478      C0B5 
 1479 24ed 1D0A 40B3 	    .byte 0x1D, 0xA, 0x40, 0xB3, 3, 0xA9, 0x1D, 0xC, 0xB0, 0xA3
 1479      03A9 1D0C 
 1479      B0A3 
 1480 24f7 03A0 57A0 	    .byte 3, 0xA0, 0x57, 0xA0, 0x26, 0xE, 0xA0, 0xA0, 0x1F, 0x10
 1480      260E A0A0 
 1480      1F10 
 1481 2501 9093 058B 	    .byte 0x90, 0x93, 5, 0x8B, 3, 0x7B, 5, 0x78, 0x21, 0x12
 1481      037B 0578 
 1481      2112 
 1482 250b C876 2E16 	    .byte 0xC8, 0x76, 0x2E, 0x16, 0x78, 8, 0x50, 0x14, 0x50
 1482      7808 5014 
 1482      50
 1483 2514 0450 1450 	    .byte 4, 0x50, 0x14, 0x50, 4, 0x50, 0x14, 0x50, 4, 0x50
 1483      0450 1450 
 1483      0450 
 1484 251e 1450 0476 	    .byte 0x14, 0x50, 4, 0x76, 0x2E, 0x18, 0x18, 8, 0x50, 0xC
 1484      2E18 1808 
 1484      500C 
 1485 2528 501C 500C 	    .byte 0x50, 0x1C, 0x50, 0xC, 0x50, 0x1C, 0x50, 0xC, 0x50
 1485      501C 500C 
68K GAS  src/xevious_sub.68k 			page 57


 1485      50
 1486 2531 1C50 0C50 	    .byte 0x1C, 0x50, 0xC, 0x50, 0x1C, 0x6B, 0x2E, 0x1A, 0x70
 1486      1C6B 2E1A 
 1486      70
 1487 253a 0940 1C50 	    .byte 9, 0x40, 0x1C, 0x50, 0xC, 0x50, 0x1C, 0x50, 0xC, 0x50
 1487      0C50 1C50 
 1487      0C50 
 1488 2544 1C50 0C50 	    .byte 0x1C, 0x50, 0xC, 0x50, 0x1C, 0x50, 0xC, 0x50, 0x1C
 1488      1C50 0C50 
 1488      1C
 1489 254d 6B2E 1C20 	    .byte 0x6B, 0x2E, 0x1C, 0x20, 9, 0x40, 4, 0x50, 0x14, 0x50
 1489      0940 0450 
 1489      1450 
 1490 2557 0450 1450 	    .byte 4, 0x50, 0x14, 0x50, 4, 0x50, 0x14, 0x50, 4, 0x50
 1490      0450 1450 
 1490      0450 
 1491 2561 1450 0461 	    .byte 0x14, 0x50, 4, 0x61, 0x2E, 0x1E, 0xA4, 7, 0x18, 0
 1491      2E1E A407 
 1491      1800 
 1492 256b 101C 6018 	    .byte 0x10, 0x1C, 0x60, 0x18, 0x38, 0x14, 0x40, 0x16, 0x60
 1492      3814 4016 
 1492      60
 1493 2574 1E20 1C5F 	    .byte 0x1E, 0x20, 0x1C, 0x5F, 0x1F, 4, 0x80, 0x5B, 0x26
 1493      1F04 805B 
 1493      26
 1494 257d 0660 5B1D 	    .byte 6, 0x60, 0x5B, 0x1D, 8, 0x20, 0x57, 0x1F, 0xA, 0x40
 1494      0820 571F 
 1494      0A40 
 1495 2587 5302 F44E 	    .byte 0x53, 2, 0xF4, 0x4E, 0x2E, 0x14, 0xAC, 6, 0x50, 0
 1495      2E14 AC06 
 1495      5000 
 1496 2591 A810 1008 	    .byte 0xA8, 0x10, 0x10, 8, 0xE0, 0x18, 0xA0, 0x10, 0xC0
 1496      E018 A010 
 1496      C0
 1497 259a 0048 2E12 	    .byte 0, 0x48, 0x2E, 0x12, 0xD4, 6, 8, 0, 0x90, 0x18, 0x10
 1497      D406 0800 
 1497      9018 10
 1498 25a5 08A0 18E0 	    .byte 8, 0xA0, 0x18, 0xE0, 0x10, 0xC0, 0, 0x47, 0x2E, 0x10
 1498      10C0 0047 
 1498      2E10 
 1499 25af 4406 1800 	    .byte 0x44, 6, 0x18, 0, 0x70, 8, 0x70, 0x18, 0xC0, 0x10
 1499      7008 7018 
 1499      C010 
 1500 25b9 F010 2018 	    .byte 0xF0, 0x10, 0x20, 0x18, 0x42, 0x5D, 0, 0x4C, 0x3B
 1500      425D 004C 
 1500      3B
 1501 25c2 2616 B037 	    .byte 0x26, 0x16, 0xB0, 0x37, 0x1F, 0x18, 0x90, 0x33, 5
 1501      1F18 9033 
 1501      05
 1502 25cb 205A 7E1F 	    .byte 0x20, 0x5A, 0x7E, 0x1F, 0x1B, 0x1A, 0x90, 0x1F, 0x1B
 1502      1B1A 901F 
 1502      1B
 1503 25d4 1C70 1F1B 	    .byte 0x1C, 0x70, 0x1F, 0x1B, 0x1E, 0x50, 0x1B, 0x1B, 4
 1503      1E50 1B1B 
 1503      04
 1504 25dd 701B 3506 	    .byte 0x70, 0x1B, 0x35, 6, 0x24, 0x1B, 2, 0xF7, 0x17, 0x3B
 1504      241B 02F7 
68K GAS  src/xevious_sub.68k 			page 58


 1504      173B 
 1505 25e7 0824 1521 	    .byte 8, 0x24, 0x15, 0x21, 0xA, 0xC0, 0x13, 0x3B, 0xE, 0x24
 1505      0AC0 133B 
 1505      0E24 
 1506 25f1 0F05 0D   	    .byte 0xF, 5, 0xD
 1507               	    
 1508               	area_16_obj_tbl_super:
 1509 25f4 0157 FF03 	    .byte 1, 0x57, 0xFF, 3, 0xF3, 0x1D, 0x14, 0xC0, 0xEF, 5
 1509      F31D 14C0 
 1509      EF05 
 1510 25fe E72E 169C 	    .byte 0xE7, 0x2E, 0x16, 0x9C, 3, 0x40, 0, 0x38, 0x1C, 0x40
 1510      0340 0038 
 1510      1C40 
 1511 2608 18E5 1B18 	    .byte 0x18, 0xE5, 0x1B, 0x18, 0x60, 0xE1, 0x2E, 0x1A, 0x24
 1511      60E1 2E1A 
 1511      24
 1512 2611 0380 0080 	    .byte 3, 0x80, 0, 0x80, 0x10, 0x80, 0, 0xDD, 0x2E, 0x1C
 1512      1080 00DD 
 1512      2E1C 
 1513 261b 9C03 8000 	    .byte 0x9C, 3, 0x80, 0, 0x80, 0x10, 0x80, 0, 0xD7, 0x1B
 1513      8010 8000 
 1513      D71B 
 1514 2625 1E78 D71B 	    .byte 0x1E, 0x78, 0xD7, 0x1B, 4, 0x48, 0xD7, 0x2E, 6, 0x24
 1514      0448 D72E 
 1514      0624 
 1515 262f 0380 0080 	    .byte 3, 0x80, 0, 0x80, 0x10, 0x80, 0, 0xD3, 0x2E, 8, 0x9C
 1515      1080 00D3 
 1515      2E08 9C
 1516 263a 0380 0080 	    .byte 3, 0x80, 0, 0x80, 0x10, 0x80, 0, 0xD3, 0x1B, 0xA, 0x60
 1516      1080 00D3 
 1516      1B0A 60
 1517 2645 CD2E 0C24 	    .byte 0xCD, 0x2E, 0xC, 0x24, 3, 0x80, 0, 0x80, 0x10, 0x80
 1517      0380 0080 
 1517      1080 
 1518 264f 00CB 260E 	    .byte 0, 0xCB, 0x26, 0xE, 0xC8, 0xCB, 0x26, 0x10, 0x60, 0xC5
 1518      C8CB 2610 
 1518      60C5 
 1519 2659 2E12 9C08 	    .byte 0x2E, 0x12, 0x9C, 8, 0x60, 0, 0x78, 0x10, 0x20, 0x12
 1519      6000 7810 
 1519      2012 
 1520 2663 F810 5810 	    .byte 0xF8, 0x10, 0x58, 0x10, 0x50, 0x18, 0x50, 8, 0x20
 1520      5018 5008 
 1520      20
 1521 266c 00C5 2E14 	    .byte 0, 0xC5, 0x2E, 0x14, 0x24, 8, 0x60, 0, 0x90, 0x10
 1521      2408 6000 
 1521      9010 
 1522 2676 200C E010 	    .byte 0x20, 0xC, 0xE0, 0x10, 0x58, 0x10, 0x50, 8, 0x50, 0x18
 1522      5810 5008 
 1522      5018 
 1523 2680 2000 C557 	    .byte 0x20, 0, 0xC5, 0x57, 0xC3, 3, 0xBB, 0x3B, 0x16, 0x70
 1523      C303 BB3B 
 1523      1670 
 1524 268a BB3B 1850 	    .byte 0xBB, 0x3B, 0x18, 0x50, 0xB7, 0x3C, 0x1A, 0x70, 0xB7
 1524      B73C 1A70 
 1524      B7
 1525 2693 3B1C 50B3 	    .byte 0x3B, 0x1C, 0x50, 0xB3, 3, 0xA3, 3, 0x95, 0x1F, 0x1E
 1525      03A3 0395 
68K GAS  src/xevious_sub.68k 			page 59


 1525      1F1E 
 1526 269d 8093 0593 	    .byte 0x80, 0x93, 5, 0x93, 0x1F, 4, 0x70, 0x91, 0x1F, 6
 1526      1F04 7091 
 1526      1F06 
 1527 26a7 608F 1F08 	    .byte 0x60, 0x8F, 0x1F, 8, 0x50, 0x85, 3, 0x7D, 0x26, 0xA
 1527      5085 037D 
 1527      260A 
 1528 26b1 E07D 260C 	    .byte 0xE0, 0x7D, 0x26, 0xC, 0x88, 0x7D, 0x26, 0xE, 0x50
 1528      887D 260E 
 1528      50
 1529 26ba 7926 10C0 	    .byte 0x79, 0x26, 0x10, 0xC0, 0x79, 0x26, 0x12, 0x6C, 0x79
 1529      7926 126C 
 1529      79
 1530 26c3 2614 186F 	    .byte 0x26, 0x14, 0x18, 0x6F, 0x21, 0x16, 0x80, 0x6F, 0x3B
 1530      2116 806F 
 1530      3B
 1531 26cc 1A34 6B3B 	    .byte 0x1A, 0x34, 0x6B, 0x3B, 0x1C, 0x34, 0x6B, 5, 0x67
 1531      1C34 6B05 
 1531      67
 1532 26d5 1D1E B065 	    .byte 0x1D, 0x1E, 0xB0, 0x65, 0x1D, 4, 0xA0, 0x63, 3, 0x53
 1532      1D04 A063 
 1532      0353 
 1533 26df 054F 2606 	    .byte 5, 0x4F, 0x26, 6, 0x80, 0x4C, 0x1F, 8, 0x68, 0x4B
 1533      804C 1F08 
 1533      684B 
 1534 26e9 2E0A 3402 	    .byte 0x2E, 0xA, 0x34, 2, 0xA0, 4, 0x20, 6, 0x44, 0x1B, 0xC
 1534      A004 2006 
 1534      441B 0C
 1535 26f4 703E 1B0E 	    .byte 0x70, 0x3E, 0x1B, 0xE, 0xC0, 0x3E, 0x1D, 0x10, 0x70
 1535      C03E 1D10 
 1535      70
 1536 26fd 3E1B 1218 	    .byte 0x3E, 0x1B, 0x12, 0x18, 0x38, 0x1B, 0x14, 0x70, 0x37
 1536      381B 1470 
 1536      37
 1537 2706 2E16 A403 	    .byte 0x2E, 0x16, 0xA4, 3, 0x70, 0, 0x70, 0x10, 0x70, 0
 1537      7000 7010 
 1537      7000 
 1538 2710 372E 0434 	    .byte 0x37, 0x2E, 4, 0x34, 3, 0x70, 0, 0x70, 0x10, 0x70
 1538      0370 0070 
 1538      1070 
 1539 271a 0033 02F9 	    .byte 0, 0x33, 2, 0xF9, 0x23, 5, 0x22, 0x2E, 6, 0x48, 2
 1539      2305 222E 
 1539      0648 02
 1540 2725 B804 2008 	    .byte 0xB8, 4, 0x20, 8, 0x22, 0x2E, 8, 0x34, 1, 0x20, 0
 1540      222E 0834 
 1540      0120 00
 1541 2730 1B2E 0A48 	    .byte 0x1B, 0x2E, 0xA, 0x48, 8, 0x30, 0, 0xA0, 4, 0xA0, 0x10
 1541      0830 00A0 
 1541      04A0 10
 1542 273b 800C 4010 	    .byte 0x80, 0xC, 0x40, 0x10, 0x80, 0x18, 0xA0, 0x18, 0x20
 1542      8018 A018 
 1542      20
 1543 2744 0017 2118 	    .byte 0, 0x17, 0x21, 0x18, 0x90, 0x17, 0x21, 0x1C, 0x70
 1543      9017 211C 
 1543      70
 1544 274d 1702 FB0F 	    .byte 0x17, 2, 0xFB, 0xF, 5, 0xF, 0x25, 3, 0xF, 0x24, 3
 1544      050F 2503 
68K GAS  src/xevious_sub.68k 			page 60


 1544      0F24 03
 1545 2758 0F29 070F 	    .byte 0xF, 0x29, 7, 0xF, 0x2F, 7, 0xF, 0x28, 0xD, 0xFF, 0xFF
 1545      2F07 0F28 
 1545      0DFF FF
 1546               	
 1547 2763 00        	    .align 2
 1548               	*****************************************************************
 1549               	*** this is actually implementing hardware on the PCB
 1550               	*** 3 ROMs are used to read the map constructed of 'meta' tiles
 1551               	*** - code implemented as per MAME driver
 1552               	*****************************************************************
 1553               	                
 1554               	* read attribute and tile byte from map
 1555               	* entry: d6=offset
 1556               	* exit:  d6=bb(0)/bb(1)
 1557               	
 1558               	xevious_bb_r:
 1559 2764 48E7 C000 	    movem.l   d0-d1,-(a7)
 1560 2768 41F9 0000 	    lea       rom2a,a0
 1560      0000 
 1561 276e 43F9 0000 	    lea       rom2b,a1
 1561      0000 
 1562 2774 45F9 0000 	    lea       rom2c,a2
 1562      0000 
 1563 277a 7400      	    moveq     #0,d2
 1564 277c 7600      	    moveq     #0,d3
 1565 277e 7800      	    moveq     #0,d4
 1566 2780 1439 0000 	    move.b    xevious_bs1,d2
 1566      0000 
 1567 2786 0202 007E 	    and.b     #0x7e,d2
 1568 278a ED4A      	    lsl.w     #6,d2
 1569 278c 1639 0000 	    move.b    xevious_bs0,d3
 1569      0000 
 1570 2792 E20B      	    lsr.b     #1,d3
 1571 2794 8403      	    or.b      d3,d2               | d2=adr_2b
 1572 2796 3602      	    move.w    d2,d3               | copy adr_2b
 1573 2798 E24B      	    lsr.w     #1,d3               | d3=(adr_2b>>1)
 1574 279a 1830 3000 	    move.b    (d3.w,a0),d4        | d4=rom2a[addr_2b>>1]
 1575 279e 0802 0000 	    btst      #0,d2
 1576 27a2 6708      	    jeq     1f
 1577 27a4 0204 00F0 	    and.b     #0xf0,d4
 1578 27a8 E94C      	    lsl.w     #4,d4
 1579 27aa 6006      	    jra     2f
 1580 27ac 0204 000F 	1:  and.b     #0x0f,d4
 1581 27b0 E14C      	    lsl.w     #8,d4
 1582 27b2 1A31 2000 	2:  move.b    (d2.w,a1),d5        | d5=rom2b[adr_2b]
 1583 27b6 8805      	    or.b      d5,d4               | d4=dat1
 1584 27b8 3404      	    move      d4,d2
 1585 27ba 0242 01FF 	    and.w     #0x1ff,d2
 1586 27be D442      	    add.w     d2,d2
 1587 27c0 D442      	    add.w     d2,d2               | d2=(dat1&0x1ff)<<2
 1588 27c2 1639 0000 	    move.b    xevious_bs1,d3
 1588      0000 
 1589 27c8 0203 0001 	    and.b     #0x01,d3
 1590 27cc D603      	    add.b     d3,d3               | d3=(xevious_bs[1]&1)<<1
 1591 27ce 8403      	    or.b      d3,d2               | d2=...
 1592 27d0 1639 0000 	    move.b    xevious_bs0,d3
68K GAS  src/xevious_sub.68k 			page 61


 1592      0000 
 1593 27d6 0203 0001 	    and.b     #0x01,d3
 1594 27da 8403      	    or.b      d3,d2               | d2=adr_2c
 1595 27dc 0804 000A 	    btst      #10,d4              | (dat1 & 0x400)
 1596 27e0 6704      	    jeq     3f
 1597 27e2 0A02 0001 	    eor.b     #0x01,d2            | (adr_2c ^= 1)
 1598 27e6 0804 0009 	3:  btst      #9,d4               | (dat1 & 0x200)
 1599 27ea 6704      	    jeq     4f
 1600 27ec 0A02 0002 	    eor.b     #0x02,d2            | (adr_2c ^= 2)
 1601 27f0 0806 0000 	4:  btst      #0,d6               | (offset & 1)
 1602 27f4 670E      	    jeq     5f
 1603 27f6 0042 0800 	    or.w      #0x800,d2           | d2=(adr_2c|0x800)
 1604 27fa 1C32 2000 	    move.b    (d2.w,a2),d6        | jB1
 1605 27fe 4CDF 0003 	    movem.l   (a7)+,d0-d1
 1606 2802 4E75      	    rts
 1607 2804 1C32 2000 	5:  move.b    (d2.w,a2),d6        | dat2=rom2c[adr_2c]
 1608 2808 1606      	    move.b    d6,d3
 1609 280a D603      	    add.b     d3,d3
 1610 280c 0203 0080 	    and.b     #0x80,d3            | bit6->7
 1611 2810 1A06      	    move.b    d6,d5
 1612 2812 E20D      	    lsr.b     #1,d5
 1613 2814 0205 0040 	    and.b     #0x40,d5            | bit7->6
 1614 2818 0206 003F 	    and.b     #0x3f,d6
 1615 281c 8C03      	    or.b      d3,d6
 1616 281e 8C05      	    or.b      d5,d6               | 6,7,5,4,3,2,1,0
 1617 2820 0804 000A 	    btst      #10,d4              | (dat1 & 0x400)
 1618 2824 6704      	    jeq     6f
 1619 2826 0A06 0040 	    eor.b     #0x40,d6
 1620 282a 0804 0009 	6:  btst      #9,d4               | (dat1 & 0x200)
 1621 282e 6704      	    jeq     7f
 1622 2830 0A06 0080 	    eor.b     #0x80,d6    
 1623 2834 4CDF 0003 	7:  movem.l   (a7)+,d0-d1
 1624 2838 4E75      	    rts
 1625               	    
 1626               	_end_of_xevious_sub_rom:
 1627               	
 1628               	    .bss
 1629               	    
 1630               	* RAM and variables
 1631               	
 1632               	    .align 4
 1633 0000 0000 0000 	sub_fn_jump_tbl_RAM:          ds.l  32
 1633      0000 0000 
 1633      0000 0000 
 1633      0000 0000 
 1633      0000 0000 
 1634               	
 1635 0080 00        	xevious_bs0:                  ds.b  1
 1636 0081 00        	xevious_bs1:                  ds.b  1
 1637               	
68K GAS  src/xevious_sub.68k 			page 62


DEFINED SYMBOLS
                            *ABS*:00000001 NO68020
                            *ABS*:00000001 RELEASE
                            *ABS*:00000001 __megadrive__
 src/xevious_sub.68k:28     .text:00000000 xevious_sub_reset
 src/xevious_sub.68k:80     .text:00000068 xevious_sub_cpu
 src/xevious_sub.68k:41     .text:00000026 xevious_sub_irq
 src/xevious_sub.68k:824    .text:00000a28 area_object_tbl_tbl_pointer
     src/xevious.inc:9      *ABS*:00000000 OPT_DISABLE_FG_LAYER
     src/xevious.inc:10     *ABS*:00000000 OPT_DISABLE_BG_LAYER
     src/xevious.inc:11     *ABS*:00000000 OPT_DISABLE_SPRITES
     src/xevious.inc:12     *ABS*:00000000 OPT_DISABLE_DISPLAY_MASKS
     src/xevious.inc:15     *ABS*:00000001 OPT_SUB_HAS_IRQ
     src/xevious.inc:17     *ABS*:00000001 OPT_START_AREA
     src/xevious.inc:18     *ABS*:00000000 OPT_LOOP_AREA
     src/xevious.inc:19     *ABS*:00000000 OPT_INVINCIBLE
     src/xevious.inc:20     *ABS*:00000000 OPT_INFINITE_LIVES
     src/xevious.inc:22     *ABS*:00000000 OPT_START_SCORE
     src/xevious.inc:23     *ABS*:00000001 OPT_ENABLE_HIGH_SCORE_IO
     src/xevious.inc:24     *ABS*:00000001 OPT_TCDEV_EASTER_EGG
     src/xevious.inc:25     *ABS*:00000000 OPT_REVEAL_SOL_TOWER
     src/xevious.inc:26     *ABS*:00000000 OPT_REVEAL_BONUS_FLAG
     src/xevious.inc:27     *ABS*:00000000 OPT_DISPLAY_AREA
     src/xevious.inc:28     *ABS*:00000000 OPT_SKIP_SPLASH
     src/xevious.inc:29     *ABS*:00000000 OPT_SKIP_ATTRACT
     src/xevious.inc:70     *ABS*:00000000 _STATE
     src/xevious.inc:71     *ABS*:00000001 _ATTR
     src/xevious.inc:72     *ABS*:00000004 _EXTRA
     src/xevious.inc:73     *ABS*:00000008 _X
     src/xevious.inc:74     *ABS*:0000000a _dX
     src/xevious.inc:75     *ABS*:0000000c _ddX
     src/xevious.inc:76     *ABS*:0000000e _Y
     src/xevious.inc:77     *ABS*:00000010 _dY
     src/xevious.inc:78     *ABS*:00000012 _ddY
     src/xevious.inc:79     *ABS*:00000014 _CODE
     src/xevious.inc:80     *ABS*:00000015 _COLOUR
     src/xevious.inc:81     *ABS*:00000016 _PTS
     src/xevious.inc:82     *ABS*:00000018 _TIMER
     src/xevious.inc:83     *ABS*:00000019 _TIMER1
     src/xevious.inc:84     *ABS*:00000019 _NVEC
     src/xevious.inc:85     *ABS*:0000001a _TIMER2
     src/xevious.inc:86     *ABS*:0000001a _VECLEN
     src/xevious.inc:87     *ABS*:0000001c _FFREQ
     src/xevious.inc:88     *ABS*:0000001e _TYPE
     src/xevious.inc:90     *ABS*:00000020 _OBJSIZE
     src/xevious.inc:93     *ABS*:00000000 BANK_FG_COLORRAM
     src/xevious.inc:94     *ABS*:00000004 BANK_BG_COLORRAM
     src/xevious.inc:95     *ABS*:00000008 BANK_FG_VIDEORAM
     src/xevious.inc:96     *ABS*:0000000c BANK_BG_VIDEORAM
     src/xevious.inc:100    *ABS*:00000001 MAIN_THEME_SND
     src/xevious.inc:101    *ABS*:00000002 HIGHEST_SCORE_SND
     src/xevious.inc:102    *ABS*:00000003 HIGH_SCORE_SND
     src/xevious.inc:103    *ABS*:00000004 EXTRA_SOLVALOU_SND
     src/xevious.inc:104    *ABS*:00000005 FLYING_ENEMY_HIT_SND
     src/xevious.inc:105    *ABS*:00000006 GARU_ZAKATO_SND
     src/xevious.inc:106    *ABS*:00000007 ANDOR_GENESIS_SND
     src/xevious.inc:107    *ABS*:00000008 SHEONITE_SND
68K GAS  src/xevious_sub.68k 			page 63


     src/xevious.inc:108    *ABS*:00000009 TELEPORT_SND
     src/xevious.inc:109    *ABS*:0000000a BACURA_HIT_SND
     src/xevious.inc:110    *ABS*:0000000b SHOT_SND
     src/xevious.inc:111    *ABS*:0000000c BOMB_SND
     src/xevious.inc:112    *ABS*:0000000d BONUS_FLAG_SND
     src/xevious.inc:113    *ABS*:0000000e SOLVALOU_SND
     src/xevious.inc:115    *ABS*:00000010 COIN_SND
     src/xevious.inc:116    *ABS*:00000011 GROUND_EXPLOSION_SND
     src/xevious.inc:117    *ABS*:00000012 SOLVALOU_EXPLOSION_SND
 src/xevious_sub.68k:25     .text:00000000 _start_of_xevious_sub_rom
 src/xevious_sub.68k:845    .text:00000a6c area_object_tbl_tbl_super
 src/xevious_sub.68k:455    .text:00000598 flying_enemy_type_offset_tbl_super
 src/xevious_sub.68k:827    .text:00000a2c area_object_tbl_tbl_normal
 src/xevious_sub.68k:432    .text:00000458 flying_enemy_type_offset_tbl_normal
 src/xevious_sub.68k:421    .text:00000414 flying_enemy_type_offset_tbl_pointer
 src/xevious_sub.68k:61     .text:00000042 sub_start
 src/xevious_sub.68k:56     .text:0000003e save_PC_to_fn_tbl_and_ret
 src/xevious_sub.68k:109    .text:0000009c sub_fn_jump_tbl_ROM
 src/xevious_sub.68k:1633   .bss:00000000 sub_fn_jump_tbl_RAM
 src/xevious_sub.68k:81     .text:00000068 restart_main_fn_loop
 src/xevious_sub.68k:87     .text:0000007a main_fn_loop
 src/xevious_sub.68k:574    .text:000007b0 sub_fn_2__handle_objects
 src/xevious_sub.68k:696    .text:00000908 sub_fn_3__handle_next_area
 src/xevious_sub.68k:171    .text:0000014a sub_fn_4__handle_credits_and_start
 src/xevious_sub.68k:208    .text:000001c8 sub_fn_5__handle_pulsing_colours
 src/xevious_sub.68k:737    .text:0000096c sub_fn_6__display_1UP_2UP
 src/xevious_sub.68k:234    .text:0000022a sub_fn_30__handle_scroll
 src/xevious_sub.68k:292    .text:000002dc sub_fn_31__update_sprite_shadow
 src/xevious_sub.68k:148    .text:0000011c sub_fn_0__update_32_sprite_hw
 src/xevious_sub.68k:158    .text:00000132 sub_fn_1__update_scroll_hw
 src/xevious_sub.68k:229    .text:0000021a colour_lut_pulsing_1
 src/xevious_sub.68k:231    .text:00000222 colour_lut_pulsing_2
 src/xevious_sub.68k:247    .text:00000250 get_map_row
 src/xevious_sub.68k:1635   .bss:00000080 xevious_bs0
 src/xevious_sub.68k:1636   .bss:00000081 xevious_bs1
 src/xevious_sub.68k:1558   .text:00002764 xevious_bb_r
 src/xevious_sub.68k:300    .text:000002e8 sub_2_fn_2__set_flying_enemies
 src/xevious_sub.68k:305    .text:000002f2 update_flying_enemies
 src/xevious_sub.68k:317    .text:00000310 sub_2_fn_3__inc_enemy_AI_and_flying_enemies
 src/xevious_sub.68k:338    .text:00000352 difficulty_tbl
 src/xevious_sub.68k:331    .text:0000033e sub_2_fn_5__reset_flying_enemies
 src/xevious_sub.68k:344    .text:00000356 sub_2_fn_23__adjust_AI_level_based_on_score
 src/xevious_sub.68k:360    .text:0000037c avg_score_per_solvalou
 src/xevious_sub.68k:375    .text:00000396 sub_2_fn_8__fire_freq_mask_derota
 src/xevious_sub.68k:381    .text:000003a4 sub_2_fn_9__fire_freq_mask_logram
 src/xevious_sub.68k:386    .text:000003b2 sub_2_fn_11__fire_freq_mask_zoshi
 src/xevious_sub.68k:391    .text:000003c0 sub_2_fn_12__fire_freq_mask_terrazi
 src/xevious_sub.68k:396    .text:000003ce sub_2_fn_13__fire_freq_mask_kapi
 src/xevious_sub.68k:401    .text:000003dc sub_2_fn_16__fire_freq_mask_boza_logram
 src/xevious_sub.68k:406    .text:000003ea sub_2_fn_17__fire_freq_mask_domogram
 src/xevious_sub.68k:411    .text:000003f8 sub_2_fn_22__fire_freq_mask_andor_genesis
 src/xevious_sub.68k:416    .text:00000406 sub_2_fn_10__gnd_stop_firing_row
 src/xevious_sub.68k:474    .text:00000698 sub_2_fn_7__reset_num_bacura
 src/xevious_sub.68k:494    .text:000006a6 sub_2_fn_15__domogram
 src/xevious_sub.68k:530    .text:00000718 sub_2_fn_18__sheonite_start
 src/xevious_sub.68k:539    .text:0000073c sub_2_fn_19__sheonite_end
 src/xevious_sub.68k:544    .text:0000074c sub_2_fn_20__andor_genesis_start
68K GAS  src/xevious_sub.68k 			page 64


 src/xevious_sub.68k:565    .text:00000790 andor_genesis_data
 src/xevious_sub.68k:569    .text:000007a0 sub_2_fn_21__andor_genesis_end
 src/xevious_sub.68k:606    .text:000007ea obj_fn_tbl
 src/xevious_sub.68k:617    .text:00000848 sub_fn_2_handler
 src/xevious_sub.68k:649    .text:000008a8 sub_2_fb_0__type_only
 src/xevious_sub.68k:673    .text:000008cc sub_2_fn_1__ground_object
 src/xevious_sub.68k:661    .text:000008ca null_fn
 src/xevious_sub.68k:691    .text:000008fa sub_2_fn_6__set_bacura_inc_cnt
 src/xevious_sub.68k:731    .text:0000095c area_offset_in_map_tbl
 src/xevious_sub.68k:769    .text:000009c6 flash_1up_2up
 src/xevious_sub.68k:757    .text:000009a8 display_1up_2up
 src/xevious_sub.68k:778    .text:000009de up_string_tbl
 src/xevious_sub.68k:786    .text:000009e8 display_char
 src/xevious_sub.68k:798    .text:000009fe calc_screen_addr
 src/xevious_sub.68k:809    .text:00000a18 osd_w_video_bank_tbl
 src/xevious_sub.68k:863    .text:00000aac area_1_obj_tbl_normal
 src/xevious_sub.68k:876    .text:00000b54 area_2_obj_tbl_normal
 src/xevious_sub.68k:893    .text:00000c3b area_3_obj_tbl_normal
 src/xevious_sub.68k:904    .text:00000cc9 area_4_obj_tbl_normal
 src/xevious_sub.68k:915    .text:00000d59 area_5_obj_tbl_normal
 src/xevious_sub.68k:931    .text:00000e34 area_6_obj_tbl_normal
 src/xevious_sub.68k:946    .text:00000eff area_7_obj_tbl_normal
 src/xevious_sub.68k:961    .text:00000fcb area_8_obj_tbl_normal
 src/xevious_sub.68k:986    .text:00001128 area_9_obj_tbl_normal
 src/xevious_sub.68k:993    .text:00001174 area_10_obj_tbl_normal
 src/xevious_sub.68k:1017   .text:000012ce area_11_obj_tbl_normal
 src/xevious_sub.68k:1034   .text:000013b0 area_12_obj_tbl_normal
 src/xevious_sub.68k:1058   .text:00001506 area_13_obj_tbl_normal
 src/xevious_sub.68k:1071   .text:000015b5 area_14_obj_tbl_normal
 src/xevious_sub.68k:1078   .text:00001603 area_15_obj_tbl_normal
 src/xevious_sub.68k:1104   .text:0000177c area_16_obj_tbl_normal
 src/xevious_sub.68k:1130   .text:000018de area_1_obj_tbl_super
 src/xevious_sub.68k:1149   .text:00001984 area_2_obj_tbl_super
 src/xevious_sub.68k:1174   .text:00001a6d area_3_obj_tbl_super
 src/xevious_sub.68k:1192   .text:00001afb area_4_obj_tbl_super
 src/xevious_sub.68k:1209   .text:00001b8b area_5_obj_tbl_super
 src/xevious_sub.68k:1234   .text:00001c66 area_6_obj_tbl_super
 src/xevious_sub.68k:1260   .text:00001d4e area_7_obj_tbl_super
 src/xevious_sub.68k:1283   .text:00001e17 area_8_obj_tbl_super
 src/xevious_sub.68k:1321   .text:00001f7f area_9_obj_tbl_super
 src/xevious_sub.68k:1331   .text:00001fc8 area_10_obj_tbl_super
 src/xevious_sub.68k:1370   .text:00002128 area_11_obj_tbl_super
 src/xevious_sub.68k:1396   .text:0000220f area_12_obj_tbl_super
 src/xevious_sub.68k:1434   .text:0000236d area_13_obj_tbl_super
 src/xevious_sub.68k:1455   .text:0000241c area_14_obj_tbl_super
 src/xevious_sub.68k:1465   .text:0000246b area_15_obj_tbl_super
 src/xevious_sub.68k:1508   .text:000025f4 area_16_obj_tbl_super
 src/xevious_sub.68k:1626   .text:0000283a _end_of_xevious_sub_rom

UNDEFINED SYMBOLS
is_super_xevious
osd_update_32_sprite_hw
bg_scroll_x_shadow
osd_update_scroll_hw
area_object_tbl_tbl_RAM
osd_debug_hook
osd_disable_vblank_interrupt
68K GAS  src/xevious_sub.68k 			page 65


osd_enable_vblank_interrupt
osd_read_coin
num_credits
osd_sound_start
osd_read_start
two_player_game
start_pressed
scroll_disabled
countup_timer_1
obj_tbl
pulsing_colour_1
pulsing_colour_2
scroll_cntr
scroll_delta
area_offset_in_map
osd_w_bg_colorram
osd_w_bg_videoram
osd_update_sprite_shadow
num_flying_enemies
flying_enemy_type_tbl_offset
area_obj_ptr
dswb
enemy_AI_level
curr_player_score_msb
solvalou_number
ffreq_mask_derota
ffreq_mask_logram
ffreq_mask_zoshi
ffreq_mask_terrazi
ffreq_mask_kapi
ffreq_mask_boza_logram
ffreq_mask_domogram
ffreq_mask_andor_genesis
gnd_stop_firing_row
num_bacura
next_domogram
domogram_tbl
sheonite_end_flag
andor_genesis_end_flag
bacura_inc_cnt
area
maincpu_inited
curr_player
is_real_game
osd_w_fg_colorram
osd_w_fg_videoram
rom2a
rom2b
rom2c
