
Memory Configuration

Name             Origin             Length             Attributes
rom              0x00000000         0x00400000         xr
ram              0x00ff0000         0x00010000         xrw
*default*        0x00000000         0xffffffff

Linker script and memory map

                0x00000000                . = 0x0

.text           0x00000000    0xe5b00
 *(.vectors)
 .vectors       0x00000000      0x200 C:\Users\pmanr\Code\xevious-genesis\obj\md\header.o
 *(.text)
 .text          0x00000200        0x0 C:\Users\pmanr\Code\xevious-genesis\obj\md\header.o
 .text          0x00000200      0x120 C:\Users\pmanr\Code\xevious-genesis\obj\md\startup.o
                0x00000200                _start
                0x00000300                md_error
                0x0000031e                md_hblank
                0x0000031e                md_ext_irq
 .text          0x00000320      0xdb6 C:\Users\pmanr\Code\xevious-genesis\obj\md\megadrive.o
                0x00000320                md_main
                0x000004ee                md_vblank
                0x000009ba                osd_enable_vblank_interrupt
                0x000009c0                osd_ack_vblank_interrupt
                0x000009c8                osd_disable_vblank_interrupt
                0x000009ce                osd_kick_wdog
                0x000009d0                osd_debug_hook
                0x000009d2                osd_w_fg_videoram
                0x000009f2                osd_w_fg_colorram
                0x00000bf6                osd_w_bg_videoram
                0x00000c16                osd_w_bg_colorram
                0x00000ce0                osd_update_scroll_hw
                0x00000ce8                osd_update_sprite_shadow
                0x00000ed4                osd_update_32_sprite_hw
                0x00000fec                osd_read_dipswitches
                0x00001026                osd_read_p1_inputs
                0x00001034                osd_read_p2_inputs
                0x0000106c                osd_read_coin
                0x000010b2                osd_read_start
                0x000010d4                osd_read_high_scores
                0x000010d4                osd_write_high_scores
 *fill*         0x000010d6        0x2 4e75
 .text          0x000010d8      0x2b2 C:\Users\pmanr\Code\xevious-genesis\obj\md\pcm4.o
                0x000010d8                md_sound_init
                0x0000127e                osd_sound_start
                0x00001334                osd_sound_stop
                0x00001354                osd_sound_mute
                0x00001382                osd_sound_unmute
 *fill*         0x0000138a        0x2 4e75
 .text          0x0000138c     0x4c0a C:\Users\pmanr\Code\xevious-genesis\obj\md\xevious_main.o
                0x0000138c                xevious_reset
                0x000014e0                xevious_im1_irq
                0x000025c4                start_area
                0x00005b5a                is_super_xevious
                0x00005b5b                invincible_flag
                0x00005b5c                infinite_lives_flag
                0x00005b5d                reveal_sol_tower_flag
                0x00005b5e                reveal_bonus_flag_flag
 *fill*         0x00005f96        0x2 4e75
 .text          0x00005f98     0x283a C:\Users\pmanr\Code\xevious-genesis\obj\md\xevious_sub.o
                0x00005f98                xevious_sub_reset
                0x00005fbe                xevious_sub_irq
                0x00006000                xevious_sub_cpu
                0x000069c0                area_object_tbl_tbl_pointer
 *fill*         0x000087d2        0x2 4e75
 .text          0x000087d4        0x0 C:\Users\pmanr\Code\xevious-genesis\obj\md\xevious_ram.o
 *fill*         0x000087d4      0x82c 4e75
 .text          0x00009000     0x4000 C:\Users\pmanr\Code\xevious-genesis\obj\md\map_rom.o
                0x00009000                rom2a
                0x0000a000                rom2b
                0x0000c000                rom2c
 .text          0x0000d000        0x0 C:\Users\pmanr\Code\xevious-genesis\obj\md\sounds_md.o
 *(.text.*)
 *(.rodata)
 .rodata        0x0000d000    0x5e7c0 C:\Users\pmanr\Code\xevious-genesis\obj\md\megadrive.o
                0x0000d000                gfx_palettes_game
                0x0000d07c                gfx_palette_title
                0x0000d09c                gfx_bg_combo_tbl
                0x0002d09c                gfx_bg_patterns
                0x0003437c                gfx_title_patterns
                0x000353dc                gfx_sprite_combo_tbl
                0x00055400                gfx_sprite_frames
                0x0006af80                gfx_fg_chars
                0x0006b780                gfx_fg_color_map
 *fill*         0x0006b7c0       0x40 4e75
 .rodata        0x0006b800     0x1c00 C:\Users\pmanr\Code\xevious-genesis\obj\md\pcm4.o
 .rodata        0x0006d400    0x78700 C:\Users\pmanr\Code\xevious-genesis\obj\md\sounds_md.o
                0x0006d400                md_sound_table
                0x0006d498                md_smp_base
 *(.rodata.*)

.data           0x000e5b00        0x0
 *(.data)
 .data          0x000e5b00        0x0 C:\Users\pmanr\Code\xevious-genesis\obj\md\header.o
 .data          0x000e5b00        0x0 C:\Users\pmanr\Code\xevious-genesis\obj\md\startup.o
 .data          0x000e5b00        0x0 C:\Users\pmanr\Code\xevious-genesis\obj\md\megadrive.o
 .data          0x000e5b00        0x0 C:\Users\pmanr\Code\xevious-genesis\obj\md\pcm4.o
 .data          0x000e5b00        0x0 C:\Users\pmanr\Code\xevious-genesis\obj\md\xevious_main.o
 .data          0x000e5b00        0x0 C:\Users\pmanr\Code\xevious-genesis\obj\md\xevious_sub.o
 .data          0x000e5b00        0x0 C:\Users\pmanr\Code\xevious-genesis\obj\md\xevious_ram.o
 .data          0x000e5b00        0x0 C:\Users\pmanr\Code\xevious-genesis\obj\md\map_rom.o
 .data          0x000e5b00        0x0 C:\Users\pmanr\Code\xevious-genesis\obj\md\sounds_md.o
 *(.data.*)
                0x000e5b00                _end_of_rom = .
                0x00ff0000                . = 0xff0000

.bss            0x00ff0000     0xa080
 *(.bss)
 .bss           0x00ff0000        0x0 C:\Users\pmanr\Code\xevious-genesis\obj\md\header.o
 .bss           0x00ff0000        0x0 C:\Users\pmanr\Code\xevious-genesis\obj\md\startup.o
 .bss           0x00ff0000     0x5012 C:\Users\pmanr\Code\xevious-genesis\obj\md\megadrive.o
 *fill*         0x00ff5012        0x2 
 .bss           0x00ff5014       0x26 C:\Users\pmanr\Code\xevious-genesis\obj\md\pcm4.o
 *fill*         0x00ff503a        0x2 
 .bss           0x00ff503c        0x0 C:\Users\pmanr\Code\xevious-genesis\obj\md\xevious_main.o
 .bss           0x00ff503c       0x82 C:\Users\pmanr\Code\xevious-genesis\obj\md\xevious_sub.o
 *fill*         0x00ff50be      0xf42 
 .bss           0x00ff6000     0x4080 C:\Users\pmanr\Code\xevious-genesis\obj\md\xevious_ram.o
                0x00ff6000                main_2_fn_tbl_1
                0x00ff6090                main_30_fn_tbl
                0x00ff609c                main_2_fn_tbl_2
                0x00ff7000                obj_tbl
                0x00ff7800                vb_semaphore_main
                0x00ff7800                watermark_0x8000
                0x00ff7801                countup_timer_1
                0x00ff7802                vb_ticks_count
                0x00ff7804                pseudo_random_seed
                0x00ff7806                bg_scroll_x_shadow
                0x00ff7808                scroll_cntr
                0x00ff780a                area_offset_in_map
                0x00ff780c                scroll_delta
                0x00ff780e                dswa
                0x00ff780f                dswb
                0x00ff7810                P1_inputs
                0x00ff7811                P2_inputs
                0x00ff7812                start_pressed
                0x00ff7813                pulsing_colour_1
                0x00ff7814                curr_player
                0x00ff7815                two_player_game
                0x00ff7816                is_real_game
                0x00ff7817                high_score_msb
                0x00ff7817                RAM_high_score
                0x00ff781a                attract_mode_stage
                0x00ff781c                num_credits
                0x00ff781d                scroll_disabled
                0x00ff781e                num_flying_enemies
                0x00ff781f                flying_enemy_type_tbl_offset
                0x00ff7820                num_bacura
                0x00ff7821                sheonite_end_flag
                0x00ff7822                andor_genesis_end_flag
                0x00ff7823                shot_flag
                0x00ff7824                shot_timer_init_value
                0x00ff7825                shot_timer
                0x00ff7826                andor_genesis_colour
                0x00ff7827                countdown_timer_1
                0x00ff7828                next_domogram
                0x00ff782a                pulsing_colour_2
                0x00ff782b                solvalou_exploding
                0x00ff782c                new_high_score_entry_index
                0x00ff782d                name_entry_char_cnt
                0x00ff782e                name_entry_curr_char_screen_offset
                0x00ff7830                name_entry_ptr_curr_char
                0x00ff7834                curr_player_score_msb
                0x00ff7835                curr_player_score_Ks
                0x00ff7836                curr_player_score_lsb
                0x00ff7837                curr_player_solvalou_left
                0x00ff7838                area_obj_ptr
                0x00ff783c                area
                0x00ff783e                enemy_AI_level
                0x00ff7840                next_bonus_life_Ks
                0x00ff7842                solvalou_number
                0x00ff7843                bonus_life_none
                0x00ff7844                ffreq_mask_derota
                0x00ff7845                ffreq_mask_kapi
                0x00ff7846                ffreq_mask_terrazi
                0x00ff7847                ffreq_mask_logram
                0x00ff7848                ffreq_mask_zoshi
                0x00ff7849                ffreq_mask_boza_logram
                0x00ff784a                ffreq_mask_domogram
                0x00ff784b                ffreq_mask_andor_genesis
                0x00ff784c                gnd_stop_firing_row
                0x00ff784d                curr_player_filler
                0x00ff788d                other_player_score_msb
                0x00ff7890                other_player_solvalou_left
                0x00ff7891                other_player_filler
                0x00ff78d4                main_fn_tbl_RAM
                0x00ff7954                area_object_tbl_tbl_RAM
                0x00ff7954                watermark_0x8400
                0x00ff7994                bacura_inc_cnt
                0x00ff7995                one_second_cntr
                0x00ff7996                str_decrypt_buf
                0x00ff79b6                RAM_test_result_final_score
                0x00ff79b9                name_buffer
                0x00ff79c6                high_score_1st_msb
                0x00ff79c9                high_score_1st_name
                0x00ff79d6                high_score_2nd_msb
                0x00ff79d9                high_score_2nd_name
                0x00ff79e6                high_score_3rd_msb
                0x00ff79e9                high_score_3rd_name
                0x00ff79f6                high_score_4th_msb
                0x00ff79f9                high_score_4th_name
                0x00ff7a06                high_score_5th_msb
                0x00ff7a09                high_score_5th_name
                0x00ff7a16                maincpu_inited
                0x00ff7a17                domogram_tbl
                0x00ff8000                fg_colorram
                0x00ff8800                bg_colorram
                0x00ff9000                fg_videoram
                0x00ff9800                bg_videoram
                0x00ffa000                sprite_shadow_msb
 .bss           0x00ffa080        0x0 C:\Users\pmanr\Code\xevious-genesis\obj\md\map_rom.o
 .bss           0x00ffa080        0x0 C:\Users\pmanr\Code\xevious-genesis\obj\md\sounds_md.o
 *(.bss.*)
 *(COMMON)
                0x00ffa080                . = ALIGN (0x4)
                0x00ffa080                _end = .
                0x00ffa080                PROVIDE (end, .)

.comment
 *(.comment)
LOAD C:\Users\pmanr\Code\xevious-genesis\obj\md\header.o
LOAD C:\Users\pmanr\Code\xevious-genesis\obj\md\startup.o
LOAD C:\Users\pmanr\Code\xevious-genesis\obj\md\megadrive.o
LOAD C:\Users\pmanr\Code\xevious-genesis\obj\md\pcm4.o
LOAD C:\Users\pmanr\Code\xevious-genesis\obj\md\xevious_main.o
LOAD C:\Users\pmanr\Code\xevious-genesis\obj\md\xevious_sub.o
LOAD C:\Users\pmanr\Code\xevious-genesis\obj\md\xevious_ram.o
LOAD C:\Users\pmanr\Code\xevious-genesis\obj\md\map_rom.o
LOAD C:\Users\pmanr\Code\xevious-genesis\obj\md\sounds_md.o
OUTPUT(C:\Users\pmanr\Code\xevious-genesis\obj\md\xevious_md.elf elf32-m68k)
