0001   0000             ; 4 channels sample player Z80 driver
0002   0000             ; it can mix up to 4 samples (8 bit signed) at a fixed 16 Khz rate
0003   0000             ; with volume support (16 levels du to memory limitation)
0004   0000             ; address and size of samples have to be 256 bytes boundary
0005   0000             ; the driver does support "cutoff" when mixing so you can use true 8 bits samples :)
0006   0000             ; Stéphane Dallongeville @2011
0007   0000             ;
0008   0000             ; we have to do 223 cycles per sample output which consist of :
0009   0000             ; - read 4 samples from the rom and mix them in output buffer (~177 cycles)
0010   0000             ; - output the obtained sample to the DAC (26 cycles)
0011   0000             ; - handle loop (18 cycles)
0012   0000             ;
0013   0000             ; register usage :
0014   0000             ; SP  = sample source (in ROM)
0015   0000             ; HL  = mix buffer
0016   0000             ; BC  = $7F00 (used for mix overflow stuff)
0017   0000             ; HL' = YMPORT0
0018   0000             ; BC' = read buffer
0019   0000             
0020   0000             
0021   0000             ; ###########################      define      ##############################
0022   0000             
0023   0000                         INCLUDE "z80_def.i80"   ; basic definitions
0001+  0000             ; ############################ define ##############################
0002+  0000             
0003+  0000             YMPORT0     EQU     $4000           ; YM2612 port 0
0004+  0000             YMPORT1     EQU     $4001           ; YM2612 port 1
0005+  0000             YMPORT2     EQU     $4002           ; YM2612 port 2
0006+  0000             YMPORT3     EQU     $4003           ; YM2612 port 3
0007+  0000             VDPSTATUS_H EQU     $7F04           ; VDP status port high
0008+  0000             VDPSTATUS_L EQU     $7F05           ; VDP status port low
0009+  0000             VCOUNTER    EQU     $7F08           ; V counter
0010+  0000             HCOUNTER    EQU     $7F09           ; H counter
0011+  0000             PSGPORT     EQU     $7F11           ; PSG port
0012+  0000             BANKREG     EQU     $6000           ; bank register
0013+  0000             
0014+  0000             COMPLAY_SFT EQU     0               ; start play command
0015+  0000             COMSTOP_SFT EQU     4               ; stop play command
0016+  0000             
0017+  0000             STATPLAY_SFT  EQU   0               ; playing status
0018+  0000             STATREADY_SFT EQU   7               ; driver ready status
0019+  0000             
0020+  0000             CH0_SFT     EQU     0               ; channel 0
0021+  0000             CH1_SFT     EQU     1               ; channel 1
0022+  0000             CH2_SFT     EQU     2               ; channel 2
0023+  0000             CH3_SFT     EQU     3               ; channel 3
0024+  0000             
0025+  0000             COMPLAY     EQU     1<<COMPLAY_SFT
0026+  0000             COMSTOP     EQU     1<<COMSTOP_SFT
0027+  0000             
0028+  0000             STATPLAY    EQU     1<<STATPLAY_SFT
0029+  0000             STATREADY   EQU     1<<STATREADY_SFT
0030+  0000             
0031+  0000             CH0         EQU     1<<CH0_SFT
0032+  0000             CH1         EQU     1<<CH1_SFT
0033+  0000             CH2         EQU     1<<CH2_SFT
0034+  0000             CH3         EQU     1<<CH3_SFT
0035+  0000             
0036+  0000             
0037+  0000             ; ########################### variable #############################
0038+  0000             
0039+  0000             COMMAND     EQU     $0100           ; command from 68K
0040+  0000             STATUS      EQU     $0102           ; status from Z80
0041+  0000             PARAMS      EQU     $0104           ; parameters (68K and Z80)
0024   0000             
0025   0000             
0026   0000             ; ###########################       var        ##############################
0027   0000             
0028   0000             WAVADR      EQU     PARAMS+$00      ; WAV address (bit 8 --> bit 23)
0029   0000             WAVLEN      EQU     PARAMS+$02      ; WAV lenght (bit 8 --> bit 23)
0030   0000             IWAVADR     EQU     PARAMS+$10      ; internal WAV address (bit 8 --> bit 23)
0031   0000             IWAVLEN     EQU     PARAMS+$12      ; internal WAV lenght (bit 8 --> bit 23)
0032   0000             
0033   0000             WAVVOL      EQU     PARAMS+$20      ; WAV volume (0 = min --> 15 = max)
0034   0000             
0035   0000             NULLWAVADR  EQU     PARAMS+$24      ; silent WAV adr
0036   0000             NULLWAVLEN  EQU     PARAMS+$26      ; silent WAV len
0037   0000             
0038   0000             WRITEBUF    EQU     PARAMS+$28
0039   0000             READBUF     EQU     PARAMS+$2A
0040   0000             
0041   0000             WAVBUFFER0  EQU     $0E00           ; WAV buffer 0
0042   0000             WAVBUFFER1  EQU     $0F00           ; WAV buffer 1
0043   0000             VOLUMETAB   EQU     $1000           ; volume table (256 * 16)
0044   0000             
0045   0000             
0046   0000             ; ###########################      macro       ##############################
0047   0000             
0048   0000                         INCLUDE "z80_mac.i80"  ; basic macros
0001+  0000             ; ############################     macro     ##############################
0002+  0000             
0003+  0000             
0004+  0000             ; setBank
0005+  0000             ; -------
0006+  0000             ; A    -> bit 22-15 of rom address to set in the bank register
0007+  0000             ; HL  <-  BANKREG
0008+  0000             ;
0009+  0000             ; set the bank register for ROM area
0010+  0000             ; = 101 cycles
0011+  0000             
0012+  0000                         macro   setBank
0013+  0000~            
0014+  0000~                        LD  HL, BANKREG         ; HL = BANKREG              ' 10
0015+  0000~                        LD  (HL), A             ; #1 (bit 15)               ' 7
0016+  0000~                        RRCA                     ;                          ' 4
0017+  0000~                        LD  (HL), A             ; #2 (bit 16)               ' 7
0018+  0000~                        RRCA                     ;                          ' 4
0019+  0000~                        LD  (HL), A             ; #3 (bit 17)               ' 7
0020+  0000~                        RRCA                     ;                          ' 4
0021+  0000~                        LD  (HL), A             ; #4 (bit 18)               ' 7
0022+  0000~                        RRCA                     ;                          ' 4
0023+  0000~                        LD  (HL), A             ; #5 (bit 19)               ' 7
0024+  0000~                        RRCA                     ;                          ' 4
0025+  0000~                        LD  (HL), A             ; #6 (bit 20)               ' 7
0026+  0000~                        RRCA                     ;                          ' 4
0027+  0000~                        LD  (HL), A             ; #7 (bit 21)               ' 7
0028+  0000~                        RRCA                     ;                          ' 4
0029+  0000~                        LD  (HL), A             ; #8 (bit 22)               ' 7
0030+  0000~                        LD  (HL), L             ; #9 (bit 23 = 0)           ' 7
0031+  0000~            
0032+  0000                         endm                    ;                           ' 101
0033+  0000             
0034+  0000             
0035+  0000             ; setBankFast
0036+  0000             ; -----------
0037+  0000             ; A    -> bit 21-15 of rom address to set in the bank register
0038+  0000             ; HL  <-  BANKREG
0039+  0000             ;
0040+  0000             ; set the bank register for ROM area
0041+  0000             ; = 97 cycles
0042+  0000             
0043+  0000                         macro   setBankFast
0044+  0000~            
0045+  0000~                        LD  HL, BANKREG         ; HL = BANKREG              ' 10
0046+  0000~                        LD  (HL), A             ; #1 (bit 15)               ' 7
0047+  0000~                        RRCA                     ;                          ' 4
0048+  0000~                        LD  (HL), A             ; #2 (bit 16)               ' 7
0049+  0000~                        RRCA                     ;                          ' 4
0050+  0000~                        LD  (HL), A             ; #3 (bit 17)               ' 7
0051+  0000~                        RRCA                     ;                          ' 4
0052+  0000~                        LD  (HL), A             ; #4 (bit 18)               ' 7
0053+  0000~                        RRCA                     ;                          ' 4
0054+  0000~                        LD  (HL), A             ; #5 (bit 19)               ' 7
0055+  0000~                        RRCA                     ;                          ' 4
0056+  0000~                        LD  (HL), A             ; #6 (bit 20)               ' 7
0057+  0000~                        RRCA                     ;                          ' 4
0058+  0000~                        LD  (HL), A             ; #7 (bit 21)               ' 7
0059+  0000~                        LD  (HL), L             ; #8 (bit 22 = 0)           ' 7
0060+  0000~                        LD  (HL), L             ; #9 (bit 23 = 0)           ' 7
0061+  0000~            
0062+  0000                         endm                    ;                           ' 97
0063+  0000             
0064+  0000             
0065+  0000             ; setBank_BC
0066+  0000             ; ----------
0067+  0000             ; A    -> bit 21-15 of rom address to set in the bank register
0068+  0000             ; BC  <-  BANKREG
0069+  0000             ; A   <-  0
0070+  0000             ;
0071+  0000             ; set the bank register for ROM area
0072+  0000             ; = 101 cycles
0073+  0000             
0074+  0000                         macro   setBank_BC
0075+  0000~            
0076+  0000~                        LD  BC, BANKREG         ; BC = BANKREG              ' 10
0077+  0000~                        LD  (BC), A             ; #1 (bit 15)               ' 7
0078+  0000~                        RRCA                    ;                           ' 4
0079+  0000~                        LD  (BC), A             ; #2 (bit 16)               ' 7
0080+  0000~                        RRCA                    ;                           ' 4
0081+  0000~                        LD  (BC), A             ; #3 (bit 17)               ' 7
0082+  0000~                        RRCA                    ;                           ' 4
0083+  0000~                        LD  (BC), A             ; #4 (bit 18)               ' 7
0084+  0000~                        RRCA                    ;                           ' 4
0085+  0000~                        LD  (BC), A             ; #5 (bit 19)               ' 7
0086+  0000~                        RRCA                    ;                           ' 4
0087+  0000~                        LD  (BC), A             ; #6 (bit 20)               ' 7
0088+  0000~                        RRCA                    ;                           ' 4
0089+  0000~                        LD  (BC), A             ; #7 (bit 21)               ' 7
0090+  0000~                        XOR A                   ;                           ' 4
0091+  0000~                        LD  (BC), A             ; #8 (bit 22 = 0)           ' 7
0092+  0000~                        LD  (BC), A             ; #9 (bit 23 = 0)           ' 7
0093+  0000~            
0094+  0000                         endm                    ;                           ' 101
0095+  0000             
0096+  0000             
0097+  0000             ; setBank_DE
0098+  0000             ; ----------
0099+  0000             ; A    -> bit 22-15 of rom address to set in the bank register
0100+  0000             ; DE  <-  BANKREG
0101+  0000             ; A   <-  0
0102+  0000             ;
0103+  0000             ; set the bank register for ROM area
0104+  0000             ; = 105 cycles
0105+  0000             
0106+  0000                         macro   setBank_DE
0107+  0000~            
0108+  0000~                        LD  DE, BANKREG         ; DE = BANKREG              ' 10
0109+  0000~                        LD  (DE), A             ; #1 (bit 15)               ' 7
0110+  0000~                        RRCA                     ;                          ' 4
0111+  0000~                        LD  (DE), A             ; #2 (bit 16)               ' 7
0112+  0000~                        RRCA                     ;                          ' 4
0113+  0000~                        LD  (DE), A             ; #3 (bit 17)               ' 7
0114+  0000~                        RRCA                     ;                          ' 4
0115+  0000~                        LD  (DE), A             ; #4 (bit 18)               ' 7
0116+  0000~                        RRCA                     ;                          ' 4
0117+  0000~                        LD  (DE), A             ; #5 (bit 19)               ' 7
0118+  0000~                        RRCA                     ;                          ' 4
0119+  0000~                        LD  (DE), A             ; #6 (bit 20)               ' 7
0120+  0000~                        RRCA                     ;                          ' 4
0121+  0000~                        LD  (DE), A             ; #7 (bit 21)               ' 7
0122+  0000~                        RRCA                     ;                          ' 4
0123+  0000~                        LD  (DE), A             ; #8 (bit 22)               ' 7
0124+  0000~                        XOR A                    ;                          ' 4
0125+  0000~                        LD  (DE), A             ; #9 (bit 23 = 0)           ' 7
0126+  0000~            
0127+  0000                         endm                    ;                           ' 105
0128+  0000             
0129+  0000             
0130+  0000             ; writeYMFast
0131+  0000             ; -----------
0132+  0000             ; HL  <-> YM port where to write
0133+  0000             ; D    -> address
0134+  0000             ; E    -> value
0135+  0000             ;
0136+  0000             ; write to YM2612 (no busy check)
0137+  0000             ; = 18 cycles
0138+  0000             
0139+  0000                         macro   writeYMFast
0140+  0000~            
0141+  0000~                        LD      (HL), D         ; write address             ' 7     |
0142+  0000~                        INC     L               ; next port                 ' 4     | 18
0143+  0000~                        LD      (HL), E         ; write value               ' 7     |
0144+  0000~            
0145+  0000                         endm
0146+  0000             
0147+  0000             
0148+  0000             
0149+  0000             ; getPlayCommand
0150+  0000             ; --------------
0151+  0000             ; HL  <-  point to COMMAND
0152+  0000             ; zf  <-  channel 'ch' play command
0153+  0000             ;
0154+  0000             ; Z flag reset if play command for channel 'ch'
0155+  0000             ; = 22 cycles
0156+  0000             
0157+  0000                         macro   getPlayCommand ch
0158+  0000~            
0159+  0000~                        LD      HL, COMMAND             ;                   ' 10
0160+  0000~                        BIT     COMPLAY_SFT+ch, (HL)    ; play command ?    ' 12
0161+  0000~            
0162+  0000                         endm                            ;                   ' 22
0163+  0000             
0164+  0000             
0165+  0000             ; getStopCommand
0166+  0000             ; --------------
0167+  0000             ; HL  <-  point to COMMAND
0168+  0000             ; zf  <-  channel 'ch' stop command
0169+  0000             ;
0170+  0000             ; Z flag reset if stop command for channel 'ch'
0171+  0000             ; = 22 cycles
0172+  0000             
0173+  0000                         macro   getStopCommand ch
0174+  0000~            
0175+  0000~                        LD      HL, COMMAND             ;                   ' 10
0176+  0000~                        BIT     COMSTOP_SFT+ch, (HL)    ; stop command ?    ' 12
0177+  0000~            
0178+  0000                         endm                            ;                   ' 22
0179+  0000             
0180+  0000             
0181+  0000             ; setPlayCommand
0182+  0000             ; ----------------
0183+  0000             ; HL  <-  point to COMMAND
0184+  0000             ;
0185+  0000             ; set the play command for channel 'ch'
0186+  0000             ; = 25 cycles
0187+  0000             
0188+  0000                         macro   setPlayCommand ch
0189+  0000~            
0190+  0000~                        LD      HL, COMMAND             ;                   ' 10
0191+  0000~                        SET     COMPLAY_SFT+ch, (HL)    ; set command       ' 15
0192+  0000~            
0193+  0000                         endm                            ;                   ' 25
0194+  0000             
0195+  0000             
0196+  0000             ; setStopCommand
0197+  0000             ; ----------------
0198+  0000             ; HL  <-  point to COMMAND
0199+  0000             ;
0200+  0000             ; set the stop command for channel 'ch'
0201+  0000             ; = 25 cycles
0202+  0000             
0203+  0000                         macro   setStopCommand ch
0204+  0000~            
0205+  0000~                        LD      HL, COMMAND             ;                   ' 10
0206+  0000~                        SET     COMSTOP_SFT+ch, (HL)    ; set command       ' 15
0207+  0000~            
0208+  0000                         endm                            ;                   ' 25
0209+  0000             
0210+  0000             
0211+  0000             ; clearPlayCommand
0212+  0000             ; ----------------
0213+  0000             ; HL  <-  point to COMMAND
0214+  0000             ;
0215+  0000             ; clear the play command for channel 'ch'
0216+  0000             ; = 25 cycles
0217+  0000             
0218+  0000                         macro   clearPlayCommand ch
0219+  0000~            
0220+  0000~                        LD      HL, COMMAND             ;                   ' 10
0221+  0000~                        RES     COMPLAY_SFT+ch, (HL)    ; clear command     ' 15
0222+  0000~            
0223+  0000                         endm                            ;                   ' 25
0224+  0000             
0225+  0000             
0226+  0000             ; clearStopCommand
0227+  0000             ; ----------------
0228+  0000             ; HL  <-  point to COMMAND
0229+  0000             ;
0230+  0000             ; clear the stop command for channel 'ch'
0231+  0000             ; = 25 cycles
0232+  0000             
0233+  0000                         macro   clearStopCommand ch
0234+  0000~            
0235+  0000~                        LD      HL, COMMAND             ;                   ' 10
0236+  0000~                        RES     COMSTOP_SFT+ch, (HL)    ; clear command     ' 15
0237+  0000~            
0238+  0000                         endm                            ;                   ' 25
0239+  0000             
0240+  0000             
0241+  0000             ; getPlayStatus
0242+  0000             ; -------------
0243+  0000             ; HL  <- point to STATUS
0244+  0000             ; zf  <-  channel 'ch' is playing
0245+  0000             ;
0246+  0000             ; Z flag reset if play status for channel 'ch'
0247+  0000             ; = 22 cycles
0248+  0000             
0249+  0000                         macro   getPlayStatus ch
0250+  0000~            
0251+  0000~                        LD      HL, STATUS              ;                   ' 10
0252+  0000~                        BIT     STATPLAY_SFT+ch, (HL)   ; get status        ' 12
0253+  0000~            
0254+  0000                         endm                            ;                   ' 22
0255+  0000             
0256+  0000             
0257+  0000             ; setPlayStatus
0258+  0000             ; -------------
0259+  0000             ; HL  <- point to STATUS
0260+  0000             ;
0261+  0000             ; set the play status for channel 'ch'
0262+  0000             ; = 25 cycles
0263+  0000             
0264+  0000                         macro   setPlayStatus ch
0265+  0000~            
0266+  0000~                        LD      HL, STATUS              ;                   ' 10
0267+  0000~                        SET     STATPLAY_SFT+ch, (HL)   ; set status        ' 15
0268+  0000~            
0269+  0000                         endm                            ;                   ' 25
0270+  0000             
0271+  0000             
0272+  0000             ; clearPlayStatus
0273+  0000             ; ---------------
0274+  0000             ; HL  <- point to STATUS
0275+  0000             ;
0276+  0000             ; clear play status for channel 'ch'
0277+  0000             ; = 25 cycles
0278+  0000             
0279+  0000                         macro   clearPlayStatus ch
0280+  0000~            
0281+  0000~                        LD      HL, STATUS              ;                   ' 10
0282+  0000~                        RES     STATPLAY_SFT+ch, (HL)   ; clear status      ' 15
0283+  0000~            
0284+  0000                         endm                            ;                   ' 25
0285+  0000             
0286+  0000             
0287+  0000             ; getLoopStatus
0288+  0000             ; -------------
0289+  0000             ; HL  <- point to STATUS+1
0290+  0000             ; zf  <-  channel 'ch' is playing
0291+  0000             ;
0292+  0000             ; Z flag reset if loop status for channel 'ch'
0293+  0000             ; = 22 cycles
0294+  0000             
0295+  0000                         macro   getLoopStatus ch
0296+  0000~            
0297+  0000~                        LD      HL, STATUS+1            ;                   ' 10
0298+  0000~                        BIT     STATPLAY_SFT+ch, (HL)   ; get status        ' 12
0299+  0000~            
0300+  0000                         endm                            ;                   ' 22
0301+  0000             
0302+  0000             
0303+  0000             ; setLoopStatus
0304+  0000             ; -------------
0305+  0000             ; HL  <- point to STATUS+1
0306+  0000             ;
0307+  0000             ; set the loop status for channel 'ch'
0308+  0000             ; = 25 cycles
0309+  0000             
0310+  0000                         macro   setLoopStatus ch
0311+  0000~            
0312+  0000~                        LD      HL, STATUS+1            ;                   ' 10
0313+  0000~                        SET     STATPLAY_SFT+ch, (HL)   ; set status        ' 15
0314+  0000~            
0315+  0000                         endm                            ;                   ' 25
0316+  0000             
0317+  0000             
0318+  0000             ; clearLoopStatus
0319+  0000             ; ---------------
0320+  0000             ; HL  <- point to STATUS+1
0321+  0000             ;
0322+  0000             ; clear loop status for channel 'ch'
0323+  0000             ; = 25 cycles
0324+  0000             
0325+  0000                         macro   clearLoopStatus ch
0326+  0000~            
0327+  0000~                        LD      HL, STATUS+1            ;                   ' 10
0328+  0000~                        RES     STATPLAY_SFT+ch, (HL)   ; clear status      ' 15
0329+  0000~            
0330+  0000                         endm                            ;                   ' 25
0331+  0000             
0332+  0000             
0333+  0000             ; clearAllStatus
0334+  0000             ; --------------
0335+  0000             ; HL  <- 0
0336+  0000             ;
0337+  0000             ; clear play and loop status for all channel
0338+  0000             ; = 26 cycles
0339+  0000             
0340+  0000                         macro   clearAllStatus
0341+  0000~            
0342+  0000~                        LD      HL, $00                 ;                   ' 10
0343+  0000~                        LD      (STATUS), HL            ; clear status      ' 16
0344+  0000~            
0345+  0000                         endm                            ;                   ' 26
0346+  0000             
0347+  0000             
0348+  0000             ; ############################  macro wait macro  ##############################
0349+  0000             
0350+  0000             
0351+  0000             ; wait2p16x
0352+  0000             ; ---------
0353+  0000             ; wait for ((w * 16) + 2) cycles
0354+  0000             ;
0355+  0000                         macro   wait2p16x w
0356+  0000~            
0357+  0000~                        LD      A, w            ; 7-2
0358+  0000~            .loop
0359+  0000~                        DEC     A               ; 4
0360+  0000~                        JR      NZ, .loop       ; 12
0361+  0000~            
0362+  0000                         endm
0363+  0000             
0364+  0000             
0365+  0000                         macro   wait4
0366+  0000~                        NOP
0367+  0000                         endm
0368+  0000             
0369+  0000                         macro   wait6
0370+  0000~                        INC     DE
0371+  0000                         endm
0372+  0000             
0373+  0000                         macro   wait7
0374+  0000~                        OR      $0
0375+  0000                         endm
0376+  0000             
0377+  0000                         macro   wait8
0378+  0000~                        wait4
0379+  0000~                        wait4
0380+  0000                         endm
0381+  0000             
0382+  0000                         macro   wait9
0383+  0000~                        LD      R, A
0384+  0000                         endm
0385+  0000             
0386+  0000                         macro   wait10
0387+  0000~                        JP      .go
0388+  0000~            .go
0389+  0000                         endm
0390+  0000             
0391+  0000                         macro   wait11
0392+  0000~                        wait7
0393+  0000~                        wait4
0394+  0000                         endm
0395+  0000             
0396+  0000                         macro   wait12
0397+  0000~                        JR      .go
0398+  0000~            .go
0399+  0000                         endm
0400+  0000             
0401+  0000                         macro   wait13
0402+  0000~                        wait9
0403+  0000~                        wait4
0404+  0000                         endm
0405+  0000             
0406+  0000                         macro   wait14
0407+  0000~                        wait7
0408+  0000~                        wait7
0409+  0000                         endm
0410+  0000             
0411+  0000                         macro   wait15
0412+  0000~                        wait8
0413+  0000~                        wait7
0414+  0000                         endm
0415+  0000             
0416+  0000                         macro   wait16
0417+  0000~                        wait12
0418+  0000~                        wait4
0419+  0000                         endm
0420+  0000             
0421+  0000                         macro   wait17
0422+  0000~                        wait10
0423+  0000~                        wait7
0424+  0000                         endm
0425+  0000             
0426+  0000                         macro   wait18
0427+  0000~                        wait9
0428+  0000~                        wait9
0429+  0000                         endm
0430+  0000             
0431+  0000                         macro   wait19
0432+  0000~                        wait12
0433+  0000~                        wait7
0434+  0000                         endm
0435+  0000             
0436+  0000                         macro   wait20
0437+  0000~                        wait11
0438+  0000~                        wait9
0439+  0000                         endm
0440+  0000             
0441+  0000                         macro   wait21
0442+  0000~                        wait12
0443+  0000~                        wait9
0444+  0000                         endm
0445+  0000             
0446+  0000                         macro   wait22
0447+  0000~                        wait18
0448+  0000~                        wait4
0449+  0000                         endm
0450+  0000             
0451+  0000                         macro   wait23
0452+  0000~                        wait14
0453+  0000~                        wait9
0454+  0000                         endm
0455+  0000             
0456+  0000                         macro   wait24
0457+  0000~                        wait12
0458+  0000~                        wait12
0459+  0000                         endm
0460+  0000             
0461+  0000                         macro   wait25
0462+  0000~                        wait21
0463+  0000~                        wait4
0464+  0000                         endm
0465+  0000             
0466+  0000                         macro   wait26
0467+  0000~                        wait18
0468+  0000~                        wait8
0469+  0000                         endm
0470+  0000             
0471+  0000                         macro   wait27
0472+  0000~                        wait18
0473+  0000~                        wait9
0474+  0000                         endm
0475+  0000             
0476+  0000                         macro   wait28
0477+  0000~                        wait21
0478+  0000~                        wait7
0479+  0000                         endm
0480+  0000             
0481+  0000                         macro   wait29
0482+  0000~                        wait21
0483+  0000~                        wait8
0484+  0000                         endm
0485+  0000             
0486+  0000                         macro   wait30
0487+  0000~                        wait21
0488+  0000~                        wait9
0489+  0000                         endm
0490+  0000             
0491+  0000                         macro   wait31
0492+  0000~                        wait21
0493+  0000~                        wait10
0494+  0000                         endm
0495+  0000             
0496+  0000                         macro   wait32
0497+  0000~                        wait20
0498+  0000~                        wait12
0499+  0000                         endm
0500+  0000             
0501+  0000                         macro   wait33
0502+  0000~                        wait21
0503+  0000~                        wait12
0504+  0000                         endm
0505+  0000             
0506+  0000                         macro   wait34
0507+  0000~                        wait2p16x 2
0508+  0000                         endm
0509+  0000             
0510+  0000                         macro   wait35
0511+  0000~                        wait28
0512+  0000~                        wait7
0513+  0000                         endm
0514+  0000             
0515+  0000                         macro   wait36
0516+  0000~                        wait27
0517+  0000~                        wait9
0518+  0000                         endm
0519+  0000             
0520+  0000                         macro   wait37
0521+  0000~                        wait28
0522+  0000~                        wait9
0523+  0000                         endm
0524+  0000             
0525+  0000                         macro   wait38
0526+  0000~                        wait24
0527+  0000~                        wait14
0528+  0000                         endm
0529+  0000             
0530+  0000                         macro   wait39
0531+  0000~                        wait27
0532+  0000~                        wait12
0533+  0000                         endm
0534+  0000             
0535+  0000                         macro   wait40
0536+  0000~                        wait27
0537+  0000~                        wait13
0538+  0000                         endm
0539+  0000             
0540+  0000                         macro   wait41
0541+  0000~                        wait34
0542+  0000~                        wait7
0543+  0000                         endm
0544+  0000             
0545+  0000                         macro   wait42
0546+  0000~                        wait34
0547+  0000~                        wait8
0548+  0000                         endm
0549+  0000             
0550+  0000                         macro   wait43
0551+  0000~                        wait36
0552+  0000~                        wait7
0553+  0000                         endm
0554+  0000             
0555+  0000                         macro   wait44
0556+  0000~                        wait34
0557+  0000~                        wait10
0558+  0000                         endm
0559+  0000             
0560+  0000                         macro   wait45
0561+  0000~                        wait36
0562+  0000~                        wait9
0563+  0000                         endm
0564+  0000             
0565+  0000                         macro   wait46
0566+  0000~                        wait34
0567+  0000~                        wait12
0568+  0000                         endm
0569+  0000             
0570+  0000                         macro   wait47
0571+  0000~                        wait34
0572+  0000~                        wait13
0573+  0000                         endm
0574+  0000             
0575+  0000                         macro   wait48
0576+  0000~                        wait36
0577+  0000~                        wait12
0578+  0000                         endm
0579+  0000             
0580+  0000                         macro   wait49
0581+  0000~                        wait36
0582+  0000~                        wait13
0583+  0000                         endm
0584+  0000             
0585+  0000                         macro   wait50
0586+  0000~                        wait2p16x 3
0587+  0000                         endm
0588+  0000             
0589+  0000                         macro   wait51
0590+  0000~                        wait34
0591+  0000~                        wait17
0592+  0000                         endm
0593+  0000             
0594+  0000                         macro   wait52
0595+  0000~                        wait34
0596+  0000~                        wait18
0597+  0000                         endm
0598+  0000             
0599+  0000                         macro   wait53
0600+  0000~                        wait36
0601+  0000~                        wait17
0602+  0000                         endm
0603+  0000             
0604+  0000                         macro   wait54
0605+  0000~                        wait50
0606+  0000~                        wait4
0607+  0000                         endm
0608+  0000             
0609+  0000                         macro   wait55
0610+  0000~                        wait34
0611+  0000~                        wait21
0612+  0000                         endm
0613+  0000             
0614+  0000                         macro   wait56
0615+  0000~                        wait34
0616+  0000~                        wait22
0617+  0000                         endm
0618+  0000             
0619+  0000                         macro   wait57
0620+  0000~                        wait50
0621+  0000~                        wait7
0622+  0000                         endm
0623+  0000             
0624+  0000                         macro   wait58
0625+  0000~                        wait50
0626+  0000~                        wait8
0627+  0000                         endm
0628+  0000             
0629+  0000                         macro   wait59
0630+  0000~                        wait50
0631+  0000~                        wait9
0632+  0000                         endm
0633+  0000             
0634+  0000                         macro   wait60
0635+  0000~                        wait50
0636+  0000~                        wait10
0637+  0000                         endm
0638+  0000             
0639+  0000                         macro   wait61
0640+  0000~                        wait50
0641+  0000~                        wait11
0642+  0000                         endm
0643+  0000             
0644+  0000                         macro   wait62
0645+  0000~                        wait50
0646+  0000~                        wait12
0647+  0000                         endm
0648+  0000             
0649+  0000                         macro   wait63
0650+  0000~                        wait50
0651+  0000~                        wait13
0652+  0000                         endm
0653+  0000             
0654+  0000                         macro   wait64
0655+  0000~                        wait50
0656+  0000~                        wait14
0657+  0000                         endm
0658+  0000             
0659+  0000                         macro   wait65
0660+  0000~                        wait50
0661+  0000~                        wait15
0662+  0000                         endm
0663+  0000             
0664+  0000                         macro   wait66
0665+  0000~                        wait2p16x 4
0666+  0000                         endm
0667+  0000             
0668+  0000                         macro   wait67
0669+  0000~                        wait50
0670+  0000~                        wait17
0671+  0000                         endm
0672+  0000             
0673+  0000                         macro   wait68
0674+  0000~                        wait50
0675+  0000~                        wait18
0676+  0000                         endm
0677+  0000             
0678+  0000                         macro   wait69
0679+  0000~                        wait50
0680+  0000~                        wait19
0681+  0000                         endm
0682+  0000             
0683+  0000                         macro   wait70
0684+  0000~                        wait66
0685+  0000~                        wait4
0686+  0000                         endm
0687+  0000             
0688+  0000                         macro   wait71
0689+  0000~                        wait50
0690+  0000~                        wait21
0691+  0000                         endm
0692+  0000             
0693+  0000                         macro   wait72
0694+  0000~                        wait50
0695+  0000~                        wait22
0696+  0000                         endm
0697+  0000             
0698+  0000                         macro   wait73
0699+  0000~                        wait66
0700+  0000~                        wait7
0701+  0000                         endm
0702+  0000             
0703+  0000                         macro   wait74
0704+  0000~                        wait66
0705+  0000~                        wait8
0706+  0000                         endm
0707+  0000             
0708+  0000                         macro   wait75
0709+  0000~                        wait66
0710+  0000~                        wait9
0711+  0000                         endm
0712+  0000             
0713+  0000                         macro   wait76
0714+  0000~                        wait66
0715+  0000~                        wait10
0716+  0000                         endm
0717+  0000             
0718+  0000                         macro   wait77
0719+  0000~                        wait66
0720+  0000~                        wait11
0721+  0000                         endm
0722+  0000             
0723+  0000                         macro   wait78
0724+  0000~                        wait66
0725+  0000~                        wait12
0726+  0000                         endm
0727+  0000             
0728+  0000                         macro   wait79
0729+  0000~                        wait66
0730+  0000~                        wait13
0731+  0000                         endm
0732+  0000             
0733+  0000                         macro   wait80
0734+  0000~                        wait66
0735+  0000~                        wait14
0736+  0000                         endm
0737+  0000             
0738+  0000                         macro   wait81
0739+  0000~                        wait66
0740+  0000~                        wait15
0741+  0000                         endm
0742+  0000             
0743+  0000                         macro   wait82
0744+  0000~                        wait2p16x 5
0745+  0000                         endm
0746+  0000             
0747+  0000                         macro   wait83
0748+  0000~                        wait66
0749+  0000~                        wait17
0750+  0000                         endm
0751+  0000             
0752+  0000                         macro   wait84
0753+  0000~                        wait66
0754+  0000~                        wait18
0755+  0000                         endm
0756+  0000             
0757+  0000                         macro   wait85
0758+  0000~                        wait66
0759+  0000~                        wait19
0760+  0000                         endm
0761+  0000             
0762+  0000                         macro   wait86
0763+  0000~                        wait82
0764+  0000~                        wait4
0765+  0000                         endm
0766+  0000             
0767+  0000                         macro   wait87
0768+  0000~                        wait66
0769+  0000~                        wait21
0770+  0000                         endm
0771+  0000             
0772+  0000                         macro   wait88
0773+  0000~                        wait66
0774+  0000~                        wait22
0775+  0000                         endm
0776+  0000             
0777+  0000                         macro   wait89
0778+  0000~                        wait82
0779+  0000~                        wait7
0780+  0000                         endm
0781+  0000             
0782+  0000                         macro   wait90
0783+  0000~                        wait82
0784+  0000~                        wait8
0785+  0000                         endm
0786+  0000             
0787+  0000                         macro   wait91
0788+  0000~                        wait82
0789+  0000~                        wait9
0790+  0000                         endm
0791+  0000             
0792+  0000                         macro   wait92
0793+  0000~                        wait82
0794+  0000~                        wait10
0795+  0000                         endm
0796+  0000             
0797+  0000                         macro   wait94
0798+  0000~                        wait82
0799+  0000~                        wait12
0800+  0000                         endm
0801+  0000             
0802+  0000                         macro   wait95
0803+  0000~                        wait82
0804+  0000~                        wait13
0805+  0000                         endm
0806+  0000             
0807+  0000                         macro   wait96
0808+  0000~                        wait82
0809+  0000~                        wait14
0810+  0000                         endm
0811+  0000             
0812+  0000                         macro   wait97
0813+  0000~                        wait82
0814+  0000~                        wait15
0815+  0000                         endm
0816+  0000             
0817+  0000                         macro   wait98
0818+  0000~                        wait2p16x 6
0819+  0000                         endm
0820+  0000             
0821+  0000                         macro   wait99
0822+  0000~                        wait82
0823+  0000~                        wait17
0824+  0000                         endm
0825+  0000             
0826+  0000                         macro   wait100
0827+  0000~                        wait82
0828+  0000~                        wait18
0829+  0000                         endm
0830+  0000             
0831+  0000                         macro   wait102
0832+  0000~                        wait98
0833+  0000~                        wait4
0834+  0000                         endm
0835+  0000             
0836+  0000                         macro   wait103
0837+  0000~                        wait82
0838+  0000~                        wait21
0839+  0000                         endm
0840+  0000             
0841+  0000                         macro   wait104
0842+  0000~                        wait82
0843+  0000~                        wait22
0844+  0000                         endm
0845+  0000             
0846+  0000                         macro   wait105
0847+  0000~                        wait98
0848+  0000~                        wait7
0849+  0000                         endm
0850+  0000             
0851+  0000                         macro   wait106
0852+  0000~                        wait98
0853+  0000~                        wait8
0854+  0000                         endm
0855+  0000             
0856+  0000                         macro   wait107
0857+  0000~                        wait98
0858+  0000~                        wait9
0859+  0000                         endm
0860+  0000             
0861+  0000                         macro   wait108
0862+  0000~                        wait98
0863+  0000~                        wait10
0864+  0000                         endm
0865+  0000             
0866+  0000                         macro   wait109
0867+  0000~                        wait98
0868+  0000~                        wait11
0869+  0000                         endm
0870+  0000             
0871+  0000                         macro   wait110
0872+  0000~                        wait98
0873+  0000~                        wait12
0874+  0000                         endm
0875+  0000             
0876+  0000                         macro   wait111
0877+  0000~                        wait98
0878+  0000~                        wait13
0879+  0000                         endm
0880+  0000             
0881+  0000                         macro   wait112
0882+  0000~                        wait98
0883+  0000~                        wait14
0884+  0000                         endm
0885+  0000             
0886+  0000                         macro   wait114
0887+  0000~                        wait2p16x 7
0888+  0000                         endm
0889+  0000             
0890+  0000                         macro   wait115
0891+  0000~                        wait98
0892+  0000~                        wait17
0893+  0000                         endm
0894+  0000             
0895+  0000                         macro   wait116
0896+  0000~                        wait98
0897+  0000~                        wait18
0898+  0000                         endm
0899+  0000             
0900+  0000                         macro   wait117
0901+  0000~                        wait98
0902+  0000~                        wait19
0903+  0000                         endm
0904+  0000             
0905+  0000                         macro   wait118
0906+  0000~                        wait114
0907+  0000~                        wait4
0908+  0000                         endm
0909+  0000             
0910+  0000                         macro   wait119
0911+  0000~                        wait98
0912+  0000~                        wait21
0913+  0000                         endm
0914+  0000             
0915+  0000                         macro   wait120
0916+  0000~                        wait98
0917+  0000~                        wait22
0918+  0000                         endm
0919+  0000             
0920+  0000                         macro   wait121
0921+  0000~                        wait114
0922+  0000~                        wait7
0923+  0000                         endm
0924+  0000             
0925+  0000                         macro   wait122
0926+  0000~                        wait114
0927+  0000~                        wait8
0928+  0000                         endm
0929+  0000             
0930+  0000                         macro   wait123
0931+  0000~                        wait114
0932+  0000~                        wait9
0933+  0000                         endm
0934+  0000             
0935+  0000                         macro   wait124
0936+  0000~                        wait114
0937+  0000~                        wait10
0938+  0000                         endm
0939+  0000             
0940+  0000                         macro   wait125
0941+  0000~                        wait114
0942+  0000~                        wait11
0943+  0000                         endm
0944+  0000             
0945+  0000                         macro   wait126
0946+  0000~                        wait114
0947+  0000~                        wait12
0948+  0000                         endm
0949+  0000             
0950+  0000                         macro   wait127
0951+  0000~                        wait114
0952+  0000~                        wait13
0953+  0000                         endm
0954+  0000             
0955+  0000                         macro   wait128
0956+  0000~                        wait114
0957+  0000~                        wait14
0958+  0000                         endm
0959+  0000             
0960+  0000                         macro   wait129
0961+  0000~                        wait114
0962+  0000~                        wait15
0963+  0000                         endm
0964+  0000             
0965+  0000                         macro   wait130
0966+  0000~                        wait2p16x 8
0967+  0000                         endm
0968+  0000             
0969+  0000                         macro   wait131
0970+  0000~                        wait114
0971+  0000~                        wait17
0972+  0000                         endm
0973+  0000             
0974+  0000                         macro   wait132
0975+  0000~                        wait114
0976+  0000~                        wait18
0977+  0000                         endm
0978+  0000             
0979+  0000                         macro   wait133
0980+  0000~                        wait114
0981+  0000~                        wait19
0982+  0000                         endm
0983+  0000             
0984+  0000                         macro   wait134
0985+  0000~                        wait130
0986+  0000~                        wait4
0987+  0000                         endm
0988+  0000             
0989+  0000                         macro   wait135
0990+  0000~                        wait114
0991+  0000~                        wait21
0992+  0000                         endm
0993+  0000             
0994+  0000                         macro   wait136
0995+  0000~                        wait114
0996+  0000~                        wait22
0997+  0000                         endm
0998+  0000             
0999+  0000                         macro   wait137
1000+  0000~                        wait130
1001+  0000~                        wait7
1002+  0000                         endm
1003+  0000             
1004+  0000                         macro   wait138
1005+  0000~                        wait130
1006+  0000~                        wait8
1007+  0000                         endm
1008+  0000             
1009+  0000                         macro   wait139
1010+  0000~                        wait130
1011+  0000~                        wait9
1012+  0000                         endm
1013+  0000             
1014+  0000                         macro   wait140
1015+  0000~                        wait130
1016+  0000~                        wait10
1017+  0000                         endm
1018+  0000             
1019+  0000                         macro   wait141
1020+  0000~                        wait130
1021+  0000~                        wait11
1022+  0000                         endm
1023+  0000             
1024+  0000                         macro   wait144
1025+  0000~                        wait130
1026+  0000~                        wait14
1027+  0000                         endm
1028+  0000             
1029+  0000                         macro   wait145
1030+  0000~                        wait130
1031+  0000~                        wait15
1032+  0000                         endm
1033+  0000             
1034+  0000                         macro   wait146
1035+  0000~                        wait2p16x 9
1036+  0000                         endm
1037+  0000             
1038+  0000                         macro   wait147
1039+  0000~                        wait130
1040+  0000~                        wait17
1041+  0000                         endm
1042+  0000             
1043+  0000                         macro   wait148
1044+  0000~                        wait130
1045+  0000~                        wait18
1046+  0000                         endm
1047+  0000             
1048+  0000                         macro   wait149
1049+  0000~                        wait130
1050+  0000~                        wait19
1051+  0000                         endm
1052+  0000             
1053+  0000                         macro   wait150
1054+  0000~                        wait146
1055+  0000~                        wait4
1056+  0000                         endm
1057+  0000             
1058+  0000                         macro   wait154
1059+  0000~                        wait146
1060+  0000~                        wait8
1061+  0000                         endm
1062+  0000             
1063+  0000                         macro   wait155
1064+  0000~                        wait146
1065+  0000~                        wait9
1066+  0000                         endm
1067+  0000             
1068+  0000                         macro   wait156
1069+  0000~                        wait146
1070+  0000~                        wait10
1071+  0000                         endm
1072+  0000             
1073+  0000                         macro   wait157
1074+  0000~                        wait146
1075+  0000~                        wait11
1076+  0000                         endm
1077+  0000             
1078+  0000                         macro   wait158
1079+  0000~                        wait146
1080+  0000~                        wait12
1081+  0000                         endm
1082+  0000             
1083+  0000                         macro   wait160
1084+  0000~                        wait146
1085+  0000~                        wait14
1086+  0000                         endm
1087+  0000             
1088+  0000                         macro   wait161
1089+  0000~                        wait146
1090+  0000~                        wait15
1091+  0000                         endm
1092+  0000             
1093+  0000                         macro   wait162
1094+  0000~                        wait2p16x 10
1095+  0000                         endm
1096+  0000             
1097+  0000                         macro   wait164
1098+  0000~                        wait146
1099+  0000~                        wait18
1100+  0000                         endm
1101+  0000             
1102+  0000                         macro   wait165
1103+  0000~                        wait146
1104+  0000~                        wait19
1105+  0000                         endm
1106+  0000             
1107+  0000                         macro   wait166
1108+  0000~                        wait162
1109+  0000~                        wait4
1110+  0000                         endm
1111+  0000             
1112+  0000                         macro   wait172
1113+  0000~                        wait162
1114+  0000~                        wait10
1115+  0000                         endm
1116+  0000             
1117+  0000                         macro   wait174
1118+  0000~                        wait162
1119+  0000~                        wait12
1120+  0000                         endm
1121+  0000             
1122+  0000                         macro   wait175
1123+  0000~                        wait162
1124+  0000~                        wait13
1125+  0000                         endm
1126+  0000             
1127+  0000                         macro   wait176
1128+  0000~                        wait162
1129+  0000~                        wait14
1130+  0000                         endm
1131+  0000             
1132+  0000                         macro   wait178
1133+  0000~                        wait2p16x 11
1134+  0000                         endm
1135+  0000             
1136+  0000                         macro   wait179
1137+  0000~                        wait162
1138+  0000~                        wait17
1139+  0000                         endm
1140+  0000             
1141+  0000                         macro   wait180
1142+  0000~                        wait162
1143+  0000~                        wait18
1144+  0000                         endm
1145+  0000             
1146+  0000                         macro   wait182
1147+  0000~                        wait178
1148+  0000~                        wait4
1149+  0000                         endm
1150+  0000             
1151+  0000                         macro   wait183
1152+  0000~                        wait162
1153+  0000~                        wait121
1154+  0000                         endm
1155+  0000             
1156+  0000                         macro   wait186
1157+  0000~                        wait178
1158+  0000~                        wait8
1159+  0000                         endm
1160+  0000             
1161+  0000                         macro   wait187
1162+  0000~                        wait178
1163+  0000~                        wait9
1164+  0000                         endm
1165+  0000             
1166+  0000                         macro   wait189
1167+  0000~                        wait178
1168+  0000~                        wait11
1169+  0000                         endm
1170+  0000             
1171+  0000                         macro   wait191
1172+  0000~                        wait178
1173+  0000~                        wait13
1174+  0000                         endm
1175+  0000             
1176+  0000                         macro   wait192
1177+  0000~                        wait178
1178+  0000~                        wait14
1179+  0000                         endm
1180+  0000             
1181+  0000                         macro   wait193
1182+  0000~                        wait178
1183+  0000~                        wait15
1184+  0000                         endm
1185+  0000             
1186+  0000                         macro   wait194
1187+  0000~                        wait2p16x 12
1188+  0000                         endm
1189+  0000             
1190+  0000                         macro   wait197
1191+  0000~                        wait178
1192+  0000~                        wait19
1193+  0000                         endm
1194+  0000             
1195+  0000                         macro   wait203
1196+  0000~                        wait194
1197+  0000~                        wait9
1198+  0000                         endm
1199+  0000             
1200+  0000                         macro   wait210
1201+  0000~                        wait2p16x 13
1202+  0000                         endm
1203+  0000             
1204+  0000                         macro   wait218
1205+  0000~                        wait210
1206+  0000~                        wait8
1207+  0000                         endm
1208+  0000             
1209+  0000                         macro   wait226
1210+  0000~                        wait2p16x 14
1211+  0000                         endm
1212+  0000             
1213+  0000                         macro   wait234
1214+  0000~                        wait226
1215+  0000~                        wait8
1216+  0000                         endm
1217+  0000             
1218+  0000                         macro   wait242
1219+  0000~                        wait2p16x 15
1220+  0000                         endm
1221+  0000             
1222+  0000                         macro   wait244
1223+  0000~                        wait226
1224+  0000~                        wait18
1225+  0000                         endm
1226+  0000             
1227+  0000                         macro   wait246
1228+  0000~                        wait242
1229+  0000~                        wait4
1230+  0000                         endm
1231+  0000             
1232+  0000                         macro   wait254
1233+  0000~                        wait242
1234+  0000~                        wait12
1235+  0000                         endm
1236+  0000             
1237+  0000                         macro   wait258
1238+  0000~                        wait2p16x 16
1239+  0000                         endm
1240+  0000             
1241+  0000                         macro   wait260
1242+  0000~                        wait242
1243+  0000~                        wait18
1244+  0000                         endm
1245+  0000             
1246+  0000                         macro   wait262
1247+  0000~                        wait258
1248+  0000~                        wait4
1249+  0000                         endm
1250+  0000             
1251+  0000                         macro   wait264
1252+  0000~                        wait242
1253+  0000~                        wait22
1254+  0000                         endm
1255+  0000             
1256+  0000                         macro   wait268
1257+  0000~                        wait258
1258+  0000~                        wait10
1259+  0000                         endm
1260+  0000             
1261+  0000                         macro   wait274
1262+  0000~                        wait2p16x 17
1263+  0000                         endm
1264+  0000             
1265+  0000                         macro   wait276
1266+  0000~                        wait258
1267+  0000~                        wait18
1268+  0000                         endm
1269+  0000             
1270+  0000                         macro   wait278
1271+  0000~                        wait274
1272+  0000~                        wait4
1273+  0000                         endm
1274+  0000             
1275+  0000                         macro   wait282
1276+  0000~                        wait274
1277+  0000~                        wait8
1278+  0000                         endm
1279+  0000             
1280+  0000                         macro   wait283
1281+  0000~                        wait274
1282+  0000~                        wait9
1283+  0000                         endm
1284+  0000             
1285+  0000                         macro   wait285
1286+  0000~                        wait274
1287+  0000~                        wait11
1288+  0000                         endm
1289+  0000             
1290+  0000                         macro   wait287
1291+  0000~                        wait274
1292+  0000~                        wait13
1293+  0000                         endm
1294+  0000             
1295+  0000                         macro   wait290
1296+  0000~                        wait2p16x 18
1297+  0000                         endm
1298+  0000             
1299+  0000                         macro   wait294
1300+  0000~                        wait290
1301+  0000~                        wait4
1302+  0000                         endm
1303+  0000             
1304+  0000                         macro   wait295
1305+  0000~                        wait274
1306+  0000~                        wait21
1307+  0000                         endm
1308+  0000             
1309+  0000                         macro   wait298
1310+  0000~                        wait290
1311+  0000~                        wait8
1312+  0000                         endm
1313+  0000             
1314+  0000                         macro   wait305
1315+  0000~                        wait290
1316+  0000~                        wait15
1317+  0000                         endm
1318+  0000             
1319+  0000                         macro   wait306
1320+  0000~                        wait2p16x 19
1321+  0000                         endm
1322+  0000             
1323+  0000                         macro   wait308
1324+  0000~                        wait290
1325+  0000~                        wait18
1326+  0000                         endm
1327+  0000             
1328+  0000                         macro   wait320
1329+  0000~                        wait306
1330+  0000~                        wait14
1331+  0000                         endm
1332+  0000             
1333+  0000                         macro   wait322
1334+  0000~                        wait2p16x 20
1335+  0000                         endm
1336+  0000             
1337+  0000                         macro   wait324
1338+  0000~                        wait306
1339+  0000~                        wait18
1340+  0000                         endm
1341+  0000             
1342+  0000                         macro   wait329
1343+  0000~                        wait322
1344+  0000~                        wait7
1345+  0000                         endm
1346+  0000             
1347+  0000                         macro   wait337
1348+  0000~                        wait322
1349+  0000~                        wait15
1350+  0000                         endm
1351+  0000             
1352+  0000                         macro   wait338
1353+  0000~                        wait2p16x 21
1354+  0000                         endm
1355+  0000             
1356+  0000                         macro   wait345
1357+  0000~                        wait338
1358+  0000~                        wait7
1359+  0000                         endm
1360+  0000             
1361+  0000                         macro   wait434
1362+  0000~                        wait2p16x 27
1363+  0000                         endm
1364+  0000             
1365+  0000                         macro   wait450
1366+  0000~                        wait2p16x 28
1367+  0000                         endm
1368+  0000             
1369+  0000                         macro   wait454
1370+  0000~                        wait450
1371+  0000~                        wait4
1372+  0000                         endm
1373+  0000             
1374+  0000                         macro   wait455
1375+  0000~                        wait434
1376+  0000~                        wait21
1377+  0000                         endm
1378+  0000             
1379+  0000                         macro   wait546
1380+  0000~                        wait2p16x 34
1381+  0000                         endm
1382+  0000             
1383+  0000                         macro   wait562
1384+  0000~                        wait2p16x 35
1385+  0000                         endm
1386+  0000             
1387+  0000                         macro   wait567
1388+  0000~                        wait546
1389+  0000~                        wait21
1390+  0000                         endm
1391+  0000             
1392+  0000                         macro   wait578
1393+  0000~                        wait2p16x 36
1394+  0000                         endm
1395+  0000             
1396+  0000                         macro   wait586
1397+  0000~                        wait578
1398+  0000~                        wait8
1399+  0000                         endm
1400+  0000             
1401+  0000                         macro   wait590
1402+  0000~                        wait578
1403+  0000~                        wait12
1404+  0000                         endm
1405+  0000             
1406+  0000                         macro   wait594
1407+  0000~                        wait2p16x 37
1408+  0000                         endm
1409+  0000             
1410+  0000                         macro   wait595
1411+  0000~                        wait578
1412+  0000~                        wait17
1413+  0000                         endm
1414+  0000             
1415+  0000                         macro   wait598
1416+  0000~                        wait594
1417+  0000~                        wait4
1418+  0000                         endm
1419+  0000             
1420+  0000                         macro   wait599
1421+  0000~                        wait578
1422+  0000~                        wait21
1423+  0000                         endm
1424+  0000             
1425+  0000                         macro   wait602
1426+  0000~                        wait594
1427+  0000~                        wait8
1428+  0000                         endm
1429+  0000             
1430+  0000                         macro   wait609
1431+  0000~                        wait594
1432+  0000~                        wait15
1433+  0000                         endm
1434+  0000             
1435+  0000                         macro   wait610
1436+  0000~                        wait2p16x 38
1437+  0000                         endm
1438+  0000             
1439+  0000                         macro   wait614
1440+  0000~                        wait610
1441+  0000~                        wait4
1442+  0000                         endm
1443+  0000             
1444+  0000                         macro   wait618
1445+  0000~                        wait610
1446+  0000~                        wait8
1447+  0000                         endm
1448+  0000             
1449+  0000                         macro   wait619
1450+  0000~                        wait610
1451+  0000~                        wait9
1452+  0000                         endm
1453+  0000             
1454+  0000                         macro   wait622
1455+  0000~                        wait610
1456+  0000~                        wait12
1457+  0000                         endm
1458+  0000             
1459+  0000                         macro   wait623
1460+  0000~                        wait610
1461+  0000~                        wait13
1462+  0000                         endm
1463+  0000             
1464+  0000                         macro   wait626
1465+  0000~                        wait2p16x 39
1466+  0000                         endm
1467+  0000             
1468+  0000                         macro   wait634
1469+  0000~                        wait626
1470+  0000~                        wait8
1471+  0000                         endm
1472+  0000             
1473+  0000                         macro   wait638
1474+  0000~                        wait626
1475+  0000~                        wait12
1476+  0000                         endm
0049   0000             
0050   0000             
0051   0000             ; copyChannelParams
0052   0000             ; -----------------
0053   0000             ; copy channel parameters to internal structure
0054   0000             ; = 64 cycles
0055   0000             
0056   0000                         macro copyChannelParams ch
0057   0000~            
0058   0000~                        LD      HL, (WAVADR+(ch*4))     ;                   ' 16
0059   0000~                        LD      (IWAVADR+(ch*4)), HL    ;                   ' 16
0060   0000~                        LD      HL, (WAVLEN+(ch*4))     ;                   ' 16
0061   0000~                        LD      (IWAVLEN+(ch*4)), HL    ;                   ' 16
0062   0000~            
0063   0000                         endm                            ;                   ' 64
0064   0000             
0065   0000             ; stopChannel
0066   0000             ; -----------
0067   0000             ; set null sample play for channel 'ch'
0068   0000             ; = 114 cycles
0069   0000             
0070   0000                         macro stopChannel ch
0071   0000~            
0072   0000~                        LD      HL, (NULLWAVADR)        ;                   ' 16
0073   0000~                        LD      (IWAVADR+(ch*4)), HL    ;                   ' 16
0074   0000~                        LD      HL, (NULLWAVLEN)        ;                   ' 16
0075   0000~                        LD      (IWAVLEN+(ch*4)), HL    ;                   ' 16
0076   0000~                        clearPlayStatus ch              ; clear play status ' 25
0077   0000~                        clearLoopStatus ch              ; clear loop status ' 25
0078   0000~            
0079   0000                         endm                            ;                   ' 114
0080   0000             
0081   0000             
0082   0000             ; handlePlayCommand
0083   0000             ; -----------------
0084   0000             ; HL  <-  ?
0085   0000             ; DE  <-  ?
0086   0000             ;
0087   0000             ; handle play command for channel 'ch'
0088   0000             ; = 146 cycles
0089   0000             
0090   0000                         macro handlePlayCommand ch
0091   0000~            
0092   0000~                        getPlayCommand ch           ; play command ?        ' 22
0093   0000~                        JP      NZ, .do_command     ;                       ' 10    (32)
0094   0000~            
0095   0000~                        wait104                     ;                       ' 104   (136)
0096   0000~                        JP      .end                ;                       ' 10    (146)
0097   0000~            
0098   0000~            .do_command
0099   0000~                        clearPlayCommand ch         ; clear play command    ' 25    (57)
0100   0000~                        copyChannelParams ch        ; copy params           ' 64
0101   0000~                        setPlayStatus ch            ; set play status       ' 25
0102   0000~            
0103   0000~            .end
0104   0000                         endm                        ;                       ' 146
0105   0000             
0106   0000             
0107   0000             ; prepareVolume
0108   0000             ; -------------
0109   0000             ; HL  <-  ?
0110   0000             ; A   <-  ?
0111   0000             ; B   <-  point to volume LUT (high part)
0112   0000             ;
0113   0000             ; prepare B for volume ajustement
0114   0000             ; = 28 cycles
0115   0000             
0116   0000                         macro prepareVolume ch
0117   0000~            
0118   0000~                        LD      HL, WAVVOL+ch       ; point to volume info  ' 10
0119   0000~                        LD      A, (HL)             ; A = volume            ' 7
0120   0000~                        OR      $10                 ; ajusted for LUT       ' 7
0121   0000~                        LD      B, A                ; save to B             ' 4
0122   0000~            
0123   0000                         endm                        ;                       ' 28
0124   0000             
0125   0000             
0126   0000             ; prepareChannel
0127   0000             ; --------------
0128   0000             ; SP  <-  point to the sample source
0129   0000             ; HL  <-  point to write buffer
0130   0000             ; A   <-  ?
0131   0000             ; E   <-  ?
0132   0000             ;
0133   0000             ; set bank and prepare registers to play channel 'ch'
0134   0000             ; = 182 cycles
0135   0000             
0136   0000                         macro prepareChannel ch
0137   0000~            
0138   0000~                        LD      HL, IWAVADR+(ch*4)  ; point to sample adr   ' 10
0139   0000~                        LD      A, (HL)             ; A = bit 8-15          ' 7
0140   0000~                        LD      E, A                ; save to E             ' 4
0141   0000~                        INC     L                   ;                       ' 4
0142   0000~                        RLA                         ; C flag = bit 15       ' 4
0143   0000~                        LD      A, (HL)             ; A = bit 16-23         ' 7
0144   0000~                        RLA                         ; A = bit 15-22         ' 4     (40)
0145   0000~                        setBankFast                 ; set bank              ' 97    (137)
0146   0000~            
0147   0000~                        LD      A, E                ; A = bit 8-15          ' 4
0148   0000~                        OR      $80                 ; A = $80 | bit 8-14    ' 7
0149   0000~                        LD      H, A                ;                       ' 4
0150   0000~                        XOR     A                   ;                       ' 4
0151   0000~                        LD      L, A                ; L = $00               ' 4
0152   0000~                        LD      SP, HL              ; SP = sample src       ' 6
0153   0000~                        LD      HL, (WRITEBUF)      ;                       ' 16    (182)
0154   0000~            
0155   0000                         endm                        ;                       ' 182
0156   0000             
0157   0000             
0158   0000             ; updateChannelData
0159   0000             ; -----------------
0160   0000             ; HL  <-  ?
0161   0000             ;
0162   0000             ; update sample address and sample lenght
0163   0000             ; = 76 cycles
0164   0000             
0165   0000                         macro updateChannelData ch
0166   0000~            
0167   0000~                        LD      HL, (IWAVADR+(ch*4))    ; increment address ' 16
0168   0000~                        INC     HL                      ;                   ' 6
0169   0000~                        LD      (IWAVADR+(ch*4)), HL    ;                   ' 16    (38)
0170   0000~            
0171   0000~                        LD      HL, (IWAVLEN+(ch*4))    ; decrement lenght  ' 16
0172   0000~                        DEC     HL                      ;                   ' 6
0173   0000~                        LD      (IWAVLEN+(ch*4)), HL    ;                   ' 16    (76)
0174   0000~            
0175   0000                         endm
0176   0000             
0177   0000             ; checkChannelEnd
0178   0000             ; ---------------
0179   0000             ; HL  <-  ?
0180   0000             ; A   <-  ?
0181   0000             ;
0182   0000             ; check is sample is done, restart it if needed
0183   0000             ; = 180 cycles
0184   0000             
0185   0000                         macro checkChannelEnd ch
0186   0000~            
0187   0000~                        LD      HL, (IWAVLEN+(ch*4))    ; get sample lenght ' 16
0188   0000~                        LD      A, H                    ;                   ' 4
0189   0000~                        OR      L                       ;                   ' 4
0190   0000~                        JP      Z, .done                ; sample done ?     ' 10    (34)
0191   0000~            
0192   0000~                        wait136                         ;                   ' 136   (170)
0193   0000~                        JP      .end                    ;                   ' 10    (180)
0194   0000~            
0195   0000~            .done
0196   0000~                        getLoopStatus ch            ; loop play ?           ' 22    (56)
0197   0000~                        JP      Z, .stop            ;                       ' 10    (66)
0198   0000~            
0199   0000~                        copyChannelParams ch        ; copy params           ' 64    (130)
0200   0000~                        wait40                      ;                       ' 40
0201   0000~                        JP      .end                ;                       ' 10    (180)
0202   0000~            
0203   0000~            .stop
0204   0000~                        stopChannel ch              ;                       ' 114   (180)
0205   0000~            
0206   0000~            .end
0207   0000                         endm                        ;                       ' 180
0208   0000             
0209   0000             
0210   0000             ; swapBuffer
0211   0000             ; ----------
0212   0000             ; HL  <-  point to new write buffer
0213   0000             ; DE  <-  point to new read buffer
0214   0000             ;
0215   0000             ; switch read and write buffer
0216   0000             ; = 72 cycles
0217   0000             
0218   0000                         macro swapBuffer
0219   0000~            
0220   0000~                        LD      HL, (WRITEBUF)      ;                       ' 16
0221   0000~                        LD      DE, (READBUF)       ;                       ' 20
0222   0000~                        LD      (WRITEBUF), DE      ;                       ' 20
0223   0000~                        LD      (READBUF), HL       ;                       ' 16
0224   0000~            
0225   0000                         endm                        ;                       ' 72
0226   0000             
0227   0000             
0228   0000             ; sampleOutput
0229   0000             ; ------------
0230   0000             ; HL'  -> YMPORT1
0231   0000             ; BC' <-> point to play output buffer
0232   0000             ; D    -> $80
0233   0000             ;
0234   0000             ; output a sample to the DAC
0235   0000             ; = 30 cycles
0236   0000             
0237   0000                         macro sampleOutput
0238   0000~            
0239   0000~                        EXX                     ;                           ' 4
0240   0000~                        LD      A, (BC)         ; read sample from buffer   ' 7
0241   0000~                        ADD     D               ; unsign                    ' 4
0242   0000~                        INC     C               ; increment with looping    ' 4
0243   0000~                        LD      (HL), A         ; play sample               ' 7
0244   0000~                        EXX                     ;                           ' 4
0245   0000~            
0246   0000                         endm                    ;                           ' 30
0247   0000             
0248   0000             
0249   0000             ; doEnvAndClear
0250   0000             ; = 18 cycles
0251   0000             
0252   0000                         macro doEnvAndClear
0253   0000~            
0254   0000~                        LD      A, (BC)         ; compute volume            ' 7
0255   0000~                        LD      (HL), A         ; write in output buffer    ' 7
0256   0000~                        INC     L               ; next                      ' 4
0257   0000~            
0258   0000                         endm
0259   0000             
0260   0000             ; readAndClear2
0261   0000             ; -------------
0262   0000             ; SP  <-> point to the sample source (ROM)
0263   0000             ; HL  <-> point to the write output buffer
0264   0000             ; BC   -> point to envelop LUT
0265   0000             ; DE  <-  ?
0266   0000             ;
0267   0000             ; read 2 samples from the ROM, apply volume
0268   0000             ; and write them in output buffer
0269   0000             ; = 56 cycles
0270   0000             
0271   0000                         macro readAndClear2
0272   0000~            
0273   0000~                        POP     DE              ; read 2 samples from ROM   ' 10+2
0274   0000~                        LD      C, E            ; first sample              ' 4
0275   0000~                        doEnvAndClear           ;                           ' 18
0276   0000~                        LD      C, D            ; second sample             ' 4
0277   0000~                        doEnvAndClear           ;                           ' 18
0278   0000~            
0279   0000                         endm                    ;                           ' 56
0280   0000             
0281   0000             
0282   0000             ; readAndClear20WhilePlay3
0283   0000             ; ------------------------
0284   0000             ; SP  <-> point to the sample source (ROM)
0285   0000             ; HL  <-> point to the write output buffer
0286   0000             ; BC   -> point to envelop LUT
0287   0000             ; DE  <-  ?
0288   0000             ;
0289   0000             ; read 20 samples from the ROM, apply volume
0290   0000             ; and write them in output buffer while playing 3 samples
0291   0000             ; = 666 cycles
0292   0000             
0293   0000                         macro readAndClear20WhilePlay3
0294   0000~            
0295   0000~                        ; 1 --------------------
0296   0000~            
0297   0000~                        sampleOutput            ;                           ' 30
0298   0000~            
0299   0000~                        readAndClear2           ;                           ' 56    |
0300   0000~                        readAndClear2           ;                           ' 56    | 168 (198)
0301   0000~                        readAndClear2           ;                           ' 56    |
0302   0000~            
0303   0000~                        ; 4 --------------------
0304   0000~            
0305   0000~                        POP     DE              ; read 2 samples from ROM   ' 10+2  |
0306   0000~                        LD      C, E            ; first sample              ' 4     | 25 (223)
0307   0000~                        wait9                   ; synchro                   ' 9     |
0308   0000~            
0309   0000~                        sampleOutput            ; (1*223)+0 --> perfect     ' 30 (253)
0310   0000~            
0311   0000~                        doEnvAndClear           ;                           ' 18    |
0312   0000~                        LD      C, D            ; second sample             ' 4     | 40 (293)
0313   0000~                        doEnvAndClear           ;                           ' 18    |
0314   0000~            
0315   0000~                        readAndClear2           ;                           ' 56    | 112 (405)
0316   0000~                        readAndClear2           ;                           ' 56    |
0317   0000~            
0318   0000~                        ; 7 --------------------
0319   0000~            
0320   0000~                        POP     DE              ; read 2 samples from ROM   ' 10+2  |
0321   0000~                        LD      C, E            ; first sample              ' 4     | 34 (446)
0322   0000~                        doEnvAndClear           ;                           ' 18    |
0323   0000~                        wait7                   ; synchro                   ' 7     |
0324   0000~            
0325   0000~                        sampleOutput            ; (2*223)+0 --> perfect     ' 30 (476)
0326   0000~            
0327   0000~                        LD      C, D            ; second sample             ' 4     | 22 (498)
0328   0000~                        doEnvAndClear           ;                           ' 18    |
0329   0000~            
0330   0000~                        readAndClear2           ;                           ' 56    |
0331   0000~                        readAndClear2           ;                           ' 56    | 168 (666)
0332   0000~                        readAndClear2           ;                           ' 56    |
0333   0000~            
0334   0000                         endm                    ;                           ' 666
0335   0000             
0336   0000             
0337   0000             ; doEnvAndMix
0338   0000             ; = 35 --> 49 cycles
0339   0000             
0340   0000                         macro doEnvAndMix
0341   0000~            
0342   0000~                        LD      A, (BC)         ; compute volume            ' 7     |
0343   0000~                        ADD     (HL)            ; mix                       ' 7     | 24
0344   0000~                        JP      PO, .ok         ; check overflow            ' 10    |
0345   0000~            
0346   0000~                        LD      A, $7F          ; fix overflow              ' 7     |
0347   0000~                        ADC     $0              ; A = $7F/$80               ' 7     | +14
0348   0000~            
0349   0000~            .ok
0350   0000~                        LD      (HL), A         ; write sample in buffer    ' 7     | 11 (35)
0351   0000~                        INC     L               ; next                      ' 4     |
0352   0000~            
0353   0000                         endm
0354   0000             
0355   0000             ; readAndMix2
0356   0000             ; -----------
0357   0000             ; SP  <-> point to the sample source (ROM)
0358   0000             ; HL  <-> point to the write output buffer
0359   0000             ; BC   -> point to envelop LUT
0360   0000             ; DE  <-  ?
0361   0000             ; A   <-  ?
0362   0000             ;
0363   0000             ; read 2 samples from the ROM, apply volume
0364   0000             ; and mix them in output buffer
0365   0000             ; = 90 --> 118 cycles
0366   0000             
0367   0000                         macro readAndMix2
0368   0000~            
0369   0000~                        POP     DE              ; read 2 samples from ROM   ' 10+2
0370   0000~            
0371   0000~                        LD      C, E            ; first sample              ' 4     |
0372   0000~                        doEnvAndMix             ;                           ' 35    | 78 (90)
0373   0000~                        LD      C, D            ; second sample             ' 4     |
0374   0000~                        doEnvAndMix             ;                           ' 35    |
0375   0000~            
0376   0000                         endm                    ;                           ' 90 (+14/+28)
0377   0000             
0378   0000             
0379   0000             ; readAndMix12WhilePlay3
0380   0000             ; ----------------------
0381   0000             ; SP  <-> point to the sample source (ROM)
0382   0000             ; HL  <-> point to the write output buffer
0383   0000             ; BC   -> point to envelop LUT
0384   0000             ; DE  <-  ?
0385   0000             ; A   <-  ?
0386   0000             ;
0387   0000             ; read 12 samples from the ROM, apply volume
0388   0000             ; and mix them in output buffer while playing 3 samples
0389   0000             ; = 640 cycles
0390   0000             
0391   0000                         macro readAndMix12WhilePlay3
0392   0000~            
0393   0000~                        ; 1 --------------------
0394   0000~            
0395   0000~                        sampleOutput            ;                           ' 30
0396   0000~            
0397   0000~                        readAndMix2             ;                           ' 90    | 180 (210)
0398   0000~                        readAndMix2             ;                           ' 90    |
0399   0000~            
0400   0000~                        ; 3 --------------------
0401   0000~            
0402   0000~                        POP     DE              ; read 2 samples from ROM   ' 10+2 (222)
0403   0000~            
0404   0000~                        sampleOutput            ; (1*223)-1 --> bit soon    ' 30 (252)
0405   0000~            
0406   0000~                        LD      C, E            ; first sample              ' 4     |
0407   0000~                        doEnvAndMix             ;                           ' 35    | 78 (330)
0408   0000~                        LD      C, D            ; second sample             ' 4     |
0409   0000~                        doEnvAndMix             ;                           ' 35    |
0410   0000~            
0411   0000~                        readAndMix2             ;                           ' 90 (420)
0412   0000~            
0413   0000~                        ; 5 --------------------
0414   0000~            
0415   0000~                        POP     DE              ; read 2 samples from ROM   ' 10+2  |
0416   0000~                        LD      C, E            ; first sample              ' 4     | 26 (446)
0417   0000~                        wait10                  ; synchro                   ' 10    |
0418   0000~            
0419   0000~                        sampleOutput            ; (2*223)+0 --> perfect     ' 30 (476)
0420   0000~            
0421   0000~                        doEnvAndMix             ;                           ' 35    |
0422   0000~                        LD      C, D            ; second sample             ' 4     | 74 (550)
0423   0000~                        doEnvAndMix             ;                           ' 35    |
0424   0000~            
0425   0000~                        readAndMix2             ;                           ' 90 (640)
0426   0000~            
0427   0000                         endm                    ;                           ' 640
0428   0000             
0429   0000             
0430   0000             ; ###########################       init       ##############################
0431   0000             
0432   0000                         ORG     $0000
0433   0000             
0434   0000             init
0435   0000 F3                      DI                      ; disable ints
0436   0001 31 00 0E                LD      SP, $0E00       ; setup stack
0437   0004 ED 56                   IM      $01             ; set int mode 1
0438   0006 AF                      XOR     A
0439   0007 32 02 01                LD      (STATUS), A     ; driver not ready
0440   000A 32 00 01                LD      (COMMAND), A    ; command cleared
0441   000D C3 00 02                JP      start           ; jump to start
0442   0010             
0443   0010             
0444   0010             ; ###########################     interrupt    ##############################
0445   0010             
0446   0010 00                      BLOCK   $0038-$
0447   0038             
0448   0038             interrupt                           ; do nothing in this program
0449   0038 ED 4D                   RETI
0450   003A             
0451   003A             
0452   003A             ; ###########################       main       ##############################
0453   003A             
0454   003A 00                      BLOCK   $0200-$
0455   0200             
0456   0200             start
0457   0200 21 04 01                LD      HL, PARAMS
0458   0203 3E 00                   LD      A, $00
0459   0205 06 20                   LD      B, $20
0460   0207             
0461   0207             cp_loop
0462   0207 77                      LD      (HL), A         ; clear sample parameters
0463   0208 23                      INC     HL
0464   0209 10 FC                   DJNZ    cp_loop
0465   020B             
0466   020B 21 00 0E                LD      HL, WAVBUFFER0
0467   020E 3E 00                   LD      A, $00
0468   0210 06 00                   LD      B, $00          ; for 256 * 2 bytes to clear
0469   0212             
0470   0212             cb_loop
0471   0212 77                      LD      (HL), A         ; initialise buffers to silent
0472   0213 23                      INC     HL
0473   0214 77                      LD      (HL), A
0474   0215 23                      INC     HL
0475   0216 10 FA                   DJNZ    cb_loop
0476   0218             
0477   0218 CD 38 0A                CALL    initDAC         ; prepare DAC for output
0478   021B             
0479   021B 21 00 0E                LD      HL, WAVBUFFER0  ; initialise write and read buffer
0480   021E 22 2C 01                LD      (WRITEBUF), HL
0481   0221 21 00 0F                LD      HL, WAVBUFFER1
0482   0224 22 2E 01                LD      (READBUF), HL
0483   0227             
0484   0227 44 4D                   LD      BC, HL          ; BC' point to read buffer
0485   0229 16 80                   LD      D, $80          ; D' = $80 (fast unsign)
0486   022B 21 01 40                LD      HL, YMPORT1     ; HL' point to YMPORT1
0487   022E D9                      EXX
0488   022F             
0489   022F             wait_nullwav
0490   022F 2A 28 01                LD      HL, (NULLWAVADR)
0491   0232 7C                      LD      A, H
0492   0233 B5                      OR      L
0493   0234 CA 2F 02                JP      Z, wait_nullwav ; wait for null wav address being initialised
0494   0237 2A 2A 01                LD      HL, (NULLWAVLEN)
0495   023A 7C                      LD      A, H
0496   023B B5                      OR      L
0497   023C CA 2F 02                JP      Z, wait_nullwav ; wait for null wav len being initialised
0498   023F             
0499   023F                         stopChannel 0           ; stop all channels
0499   023F 2A 28 01    >            LD      HL, (NULLWAVADR)        ;                   ' 16
0499   0242 22 14 01    >            LD      (IWAVADR+(ch*4)), HL    ;                   ' 16
0499   0245 2A 2A 01    >            LD      HL, (NULLWAVLEN)        ;                   ' 16
0499   0248 22 16 01    >            LD      (IWAVLEN+(ch*4)), HL    ;                   ' 16
0499   024B 21 02 01    >            LD      HL, STATUS              ;                   ' 10
0499   024E CB 86       >            RES     STATPLAY_SFT+ch, (HL)   ; clear status      ' 15
0499   0250 21 03 01    >            LD      HL, STATUS+1            ;                   ' 10
0499   0253 CB 86       >            RES     STATPLAY_SFT+ch, (HL)   ; clear status      ' 15
0500   0255                         stopChannel 1
0500   0255 2A 28 01    >            LD      HL, (NULLWAVADR)        ;                   ' 16
0500   0258 22 18 01    >            LD      (IWAVADR+(ch*4)), HL    ;                   ' 16
0500   025B 2A 2A 01    >            LD      HL, (NULLWAVLEN)        ;                   ' 16
0500   025E 22 1A 01    >            LD      (IWAVLEN+(ch*4)), HL    ;                   ' 16
0500   0261 21 02 01    >            LD      HL, STATUS              ;                   ' 10
0500   0264 CB 8E       >            RES     STATPLAY_SFT+ch, (HL)   ; clear status      ' 15
0500   0266 21 03 01    >            LD      HL, STATUS+1            ;                   ' 10
0500   0269 CB 8E       >            RES     STATPLAY_SFT+ch, (HL)   ; clear status      ' 15
0501   026B                         stopChannel 2
0501   026B 2A 28 01    >            LD      HL, (NULLWAVADR)        ;                   ' 16
0501   026E 22 1C 01    >            LD      (IWAVADR+(ch*4)), HL    ;                   ' 16
0501   0271 2A 2A 01    >            LD      HL, (NULLWAVLEN)        ;                   ' 16
0501   0274 22 1E 01    >            LD      (IWAVLEN+(ch*4)), HL    ;                   ' 16
0501   0277 21 02 01    >            LD      HL, STATUS              ;                   ' 10
0501   027A CB 96       >            RES     STATPLAY_SFT+ch, (HL)   ; clear status      ' 15
0501   027C 21 03 01    >            LD      HL, STATUS+1            ;                   ' 10
0501   027F CB 96       >            RES     STATPLAY_SFT+ch, (HL)   ; clear status      ' 15
0502   0281                         stopChannel 3
0502   0281 2A 28 01    >            LD      HL, (NULLWAVADR)        ;                   ' 16
0502   0284 22 20 01    >            LD      (IWAVADR+(ch*4)), HL    ;                   ' 16
0502   0287 2A 2A 01    >            LD      HL, (NULLWAVLEN)        ;                   ' 16
0502   028A 22 22 01    >            LD      (IWAVLEN+(ch*4)), HL    ;                   ' 16
0502   028D 21 02 01    >            LD      HL, STATUS              ;                   ' 10
0502   0290 CB 9E       >            RES     STATPLAY_SFT+ch, (HL)   ; clear status      ' 15
0502   0292 21 03 01    >            LD      HL, STATUS+1            ;                   ' 10
0502   0295 CB 9E       >            RES     STATPLAY_SFT+ch, (HL)   ; clear status      ' 15
0503   0297             
0504   0297 21 24 01                LD      HL, WAVVOL      ; init all channels to max volume
0505   029A 3E 0F                   LD      A, $0F
0506   029C 77                      LD      (HL), A
0507   029D 2C                      INC     L
0508   029E 77                      LD      (HL), A
0509   029F 2C                      INC     L
0510   02A0 77                      LD      (HL), A
0511   02A1 2C                      INC     L
0512   02A2 77                      LD      (HL), A
0513   02A3             
0514   02A3 3E 80                   LD      A, STATREADY
0515   02A5 32 02 01                LD      (STATUS), A     ; driver ready
0516   02A8             
0517   02A8             main_loop
0518   02A8             
0519   02A8             ; channel 0
0520   02A8             ; ---------
0521   02A8             
0522   02A8             ; $00
0523   02A8                         sampleOutput                ;                       ' 30    |
0523   02A8 D9          >            EXX                     ;                           ' 4
0523   02A9 0A          >            LD      A, (BC)         ; read sample from buffer   ' 7
0523   02AA 82          >            ADD     D               ; unsign                    ' 4
0523   02AB 0C          >            INC     C               ; increment with looping    ' 4
0523   02AC 77          >            LD      (HL), A         ; play sample               ' 7
0523   02AD D9          >            EXX                     ;                           ' 4
0524   02AE                         handlePlayCommand 0         ;                       ' 146   | 223
0524   02AE 21 00 01    >            LD      HL, COMMAND             ;                   ' 10
0524   02B1 CB 46       >            BIT     COMPLAY_SFT+ch, (HL)    ; play command ?    ' 12
0524   02B3 C2 C3 02    >            JP      NZ, .do_command     ;                       ' 10    (32)
0524   02B6 3E 05       >            LD      A, w            ; 7-2
0524   02B8 3D          >            DEC     A               ; 4
0524   02B9 20 FD       >            JR      NZ, .loop       ; 12
0524   02BB ED 4F       >            LD      R, A
0524   02BD ED 4F       >            LD      R, A
0524   02BF 00          >            NOP
0524   02C0 C3 D9 02    >            JP      .end                ;                       ' 10    (146)
0524   02C3 21 00 01    >            LD      HL, COMMAND             ;                   ' 10
0524   02C6 CB 86       >            RES     COMPLAY_SFT+ch, (HL)    ; clear command     ' 15
0524   02C8 2A 04 01    >            LD      HL, (WAVADR+(ch*4))     ;                   ' 16
0524   02CB 22 14 01    >            LD      (IWAVADR+(ch*4)), HL    ;                   ' 16
0524   02CE 2A 06 01    >            LD      HL, (WAVLEN+(ch*4))     ;                   ' 16
0524   02D1 22 16 01    >            LD      (IWAVLEN+(ch*4)), HL    ;                   ' 16
0524   02D4 21 02 01    >            LD      HL, STATUS              ;                   ' 10
0524   02D7 CB C6       >            SET     STATPLAY_SFT+ch, (HL)   ; set status        ' 15
0525   02D9                         prepareVolume 0             ;                       ' 28    |
0525   02D9 21 24 01    >            LD      HL, WAVVOL+ch       ; point to volume info  ' 10
0525   02DC 7E          >            LD      A, (HL)             ; A = volume            ' 7
0525   02DD F6 10       >            OR      $10                 ; ajusted for LUT       ' 7
0525   02DF 47          >            LD      B, A                ; save to B             ' 4
0526   02E0                         wait19                      ;                       ' 19    |
0526   02E0 18 00       >            JR      .go
0526   02E2 F6 00       >            OR      $0
0527   02E4             
0528   02E4             ; $01
0529   02E4                         sampleOutput                ;                       ' 30    |
0529   02E4 D9          >            EXX                     ;                           ' 4
0529   02E5 0A          >            LD      A, (BC)         ; read sample from buffer   ' 7
0529   02E6 82          >            ADD     D               ; unsign                    ' 4
0529   02E7 0C          >            INC     C               ; increment with looping    ' 4
0529   02E8 77          >            LD      (HL), A         ; play sample               ' 7
0529   02E9 D9          >            EXX                     ;                           ' 4
0530   02EA                         prepareChannel 0            ;                       ' 182   | 223
0530   02EA 21 14 01    >            LD      HL, IWAVADR+(ch*4)  ; point to sample adr   ' 10
0530   02ED 7E          >            LD      A, (HL)             ; A = bit 8-15          ' 7
0530   02EE 5F          >            LD      E, A                ; save to E             ' 4
0530   02EF 2C          >            INC     L                   ;                       ' 4
0530   02F0 17          >            RLA                         ; C flag = bit 15       ' 4
0530   02F1 7E          >            LD      A, (HL)             ; A = bit 16-23         ' 7
0530   02F2 17          >            RLA                         ; A = bit 15-22         ' 4     (40)
0530   02F3 21 00 60    >            LD  HL, BANKREG         ; HL = BANKREG              ' 10
0530   02F6 77          >            LD  (HL), A             ; #1 (bit 15)               ' 7
0530   02F7 0F          >            RRCA                     ;                          ' 4
0530   02F8 77          >            LD  (HL), A             ; #2 (bit 16)               ' 7
0530   02F9 0F          >            RRCA                     ;                          ' 4
0530   02FA 77          >            LD  (HL), A             ; #3 (bit 17)               ' 7
0530   02FB 0F          >            RRCA                     ;                          ' 4
0530   02FC 77          >            LD  (HL), A             ; #4 (bit 18)               ' 7
0530   02FD 0F          >            RRCA                     ;                          ' 4
0530   02FE 77          >            LD  (HL), A             ; #5 (bit 19)               ' 7
0530   02FF 0F          >            RRCA                     ;                          ' 4
0530   0300 77          >            LD  (HL), A             ; #6 (bit 20)               ' 7
0530   0301 0F          >            RRCA                     ;                          ' 4
0530   0302 77          >            LD  (HL), A             ; #7 (bit 21)               ' 7
0530   0303 75          >            LD  (HL), L             ; #8 (bit 22 = 0)           ' 7
0530   0304 75          >            LD  (HL), L             ; #9 (bit 23 = 0)           ' 7
0530   0305 7B          >            LD      A, E                ; A = bit 8-15          ' 4
0530   0306 F6 80       >            OR      $80                 ; A = $80 | bit 8-14    ' 7
0530   0308 67          >            LD      H, A                ;                       ' 4
0530   0309 AF          >            XOR     A                   ;                       ' 4
0530   030A 6F          >            LD      L, A                ; L = $00               ' 4
0530   030B F9          >            LD      SP, HL              ; SP = sample src       ' 6
0530   030C 2A 2C 01    >            LD      HL, (WRITEBUF)      ;                       ' 16    (182)
0531   030F DD 2E 09                LD      IXL, 9              ; prepare loop          ' 11    |
0532   0312             
0533   0312             ; $02-$25
0534   0312             loop_ch0
0535   0312                         readAndClear20WhilePlay3    ;                       ' 666   |
0535   0312 D9          >            EXX                     ;                           ' 4
0535   0313 0A          >            LD      A, (BC)         ; read sample from buffer   ' 7
0535   0314 82          >            ADD     D               ; unsign                    ' 4
0535   0315 0C          >            INC     C               ; increment with looping    ' 4
0535   0316 77          >            LD      (HL), A         ; play sample               ' 7
0535   0317 D9          >            EXX                     ;                           ' 4
0535   0318 D1          >            POP     DE              ; read 2 samples from ROM   ' 10+2
0535   0319 4B          >            LD      C, E            ; first sample              ' 4
0535   031A 0A          >            LD      A, (BC)         ; compute volume            ' 7
0535   031B 77          >            LD      (HL), A         ; write in output buffer    ' 7
0535   031C 2C          >            INC     L               ; next                      ' 4
0535   031D 4A          >            LD      C, D            ; second sample             ' 4
0535   031E 0A          >            LD      A, (BC)         ; compute volume            ' 7
0535   031F 77          >            LD      (HL), A         ; write in output buffer    ' 7
0535   0320 2C          >            INC     L               ; next                      ' 4
0535   0321 D1          >            POP     DE              ; read 2 samples from ROM   ' 10+2
0535   0322 4B          >            LD      C, E            ; first sample              ' 4
0535   0323 0A          >            LD      A, (BC)         ; compute volume            ' 7
0535   0324 77          >            LD      (HL), A         ; write in output buffer    ' 7
0535   0325 2C          >            INC     L               ; next                      ' 4
0535   0326 4A          >            LD      C, D            ; second sample             ' 4
0535   0327 0A          >            LD      A, (BC)         ; compute volume            ' 7
0535   0328 77          >            LD      (HL), A         ; write in output buffer    ' 7
0535   0329 2C          >            INC     L               ; next                      ' 4
0535   032A D1          >            POP     DE              ; read 2 samples from ROM   ' 10+2
0535   032B 4B          >            LD      C, E            ; first sample              ' 4
0535   032C 0A          >            LD      A, (BC)         ; compute volume            ' 7
0535   032D 77          >            LD      (HL), A         ; write in output buffer    ' 7
0535   032E 2C          >            INC     L               ; next                      ' 4
0535   032F 4A          >            LD      C, D            ; second sample             ' 4
0535   0330 0A          >            LD      A, (BC)         ; compute volume            ' 7
0535   0331 77          >            LD      (HL), A         ; write in output buffer    ' 7
0535   0332 2C          >            INC     L               ; next                      ' 4
0535   0333 D1          >            POP     DE              ; read 2 samples from ROM   ' 10+2  |
0535   0334 4B          >            LD      C, E            ; first sample              ' 4     | 25 (223)
0535   0335 ED 4F       >            LD      R, A
0535   0337 D9          >            EXX                     ;                           ' 4
0535   0338 0A          >            LD      A, (BC)         ; read sample from buffer   ' 7
0535   0339 82          >            ADD     D               ; unsign                    ' 4
0535   033A 0C          >            INC     C               ; increment with looping    ' 4
0535   033B 77          >            LD      (HL), A         ; play sample               ' 7
0535   033C D9          >            EXX                     ;                           ' 4
0535   033D 0A          >            LD      A, (BC)         ; compute volume            ' 7
0535   033E 77          >            LD      (HL), A         ; write in output buffer    ' 7
0535   033F 2C          >            INC     L               ; next                      ' 4
0535   0340 4A          >            LD      C, D            ; second sample             ' 4     | 40 (293)
0535   0341 0A          >            LD      A, (BC)         ; compute volume            ' 7
0535   0342 77          >            LD      (HL), A         ; write in output buffer    ' 7
0535   0343 2C          >            INC     L               ; next                      ' 4
0535   0344 D1          >            POP     DE              ; read 2 samples from ROM   ' 10+2
0535   0345 4B          >            LD      C, E            ; first sample              ' 4
0535   0346 0A          >            LD      A, (BC)         ; compute volume            ' 7
0535   0347 77          >            LD      (HL), A         ; write in output buffer    ' 7
0535   0348 2C          >            INC     L               ; next                      ' 4
0535   0349 4A          >            LD      C, D            ; second sample             ' 4
0535   034A 0A          >            LD      A, (BC)         ; compute volume            ' 7
0535   034B 77          >            LD      (HL), A         ; write in output buffer    ' 7
0535   034C 2C          >            INC     L               ; next                      ' 4
0535   034D D1          >            POP     DE              ; read 2 samples from ROM   ' 10+2
0535   034E 4B          >            LD      C, E            ; first sample              ' 4
0535   034F 0A          >            LD      A, (BC)         ; compute volume            ' 7
0535   0350 77          >            LD      (HL), A         ; write in output buffer    ' 7
0535   0351 2C          >            INC     L               ; next                      ' 4
0535   0352 4A          >            LD      C, D            ; second sample             ' 4
0535   0353 0A          >            LD      A, (BC)         ; compute volume            ' 7
0535   0354 77          >            LD      (HL), A         ; write in output buffer    ' 7
0535   0355 2C          >            INC     L               ; next                      ' 4
0535   0356 D1          >            POP     DE              ; read 2 samples from ROM   ' 10+2  |
0535   0357 4B          >            LD      C, E            ; first sample              ' 4     | 34 (446)
0535   0358 0A          >            LD      A, (BC)         ; compute volume            ' 7
0535   0359 77          >            LD      (HL), A         ; write in output buffer    ' 7
0535   035A 2C          >            INC     L               ; next                      ' 4
0535   035B F6 00       >            OR      $0
0535   035D D9          >            EXX                     ;                           ' 4
0535   035E 0A          >            LD      A, (BC)         ; read sample from buffer   ' 7
0535   035F 82          >            ADD     D               ; unsign                    ' 4
0535   0360 0C          >            INC     C               ; increment with looping    ' 4
0535   0361 77          >            LD      (HL), A         ; play sample               ' 7
0535   0362 D9          >            EXX                     ;                           ' 4
0535   0363 4A          >            LD      C, D            ; second sample             ' 4     | 22 (498)
0535   0364 0A          >            LD      A, (BC)         ; compute volume            ' 7
0535   0365 77          >            LD      (HL), A         ; write in output buffer    ' 7
0535   0366 2C          >            INC     L               ; next                      ' 4
0535   0367 D1          >            POP     DE              ; read 2 samples from ROM   ' 10+2
0535   0368 4B          >            LD      C, E            ; first sample              ' 4
0535   0369 0A          >            LD      A, (BC)         ; compute volume            ' 7
0535   036A 77          >            LD      (HL), A         ; write in output buffer    ' 7
0535   036B 2C          >            INC     L               ; next                      ' 4
0535   036C 4A          >            LD      C, D            ; second sample             ' 4
0535   036D 0A          >            LD      A, (BC)         ; compute volume            ' 7
0535   036E 77          >            LD      (HL), A         ; write in output buffer    ' 7
0535   036F 2C          >            INC     L               ; next                      ' 4
0535   0370 D1          >            POP     DE              ; read 2 samples from ROM   ' 10+2
0535   0371 4B          >            LD      C, E            ; first sample              ' 4
0535   0372 0A          >            LD      A, (BC)         ; compute volume            ' 7
0535   0373 77          >            LD      (HL), A         ; write in output buffer    ' 7
0535   0374 2C          >            INC     L               ; next                      ' 4
0535   0375 4A          >            LD      C, D            ; second sample             ' 4
0535   0376 0A          >            LD      A, (BC)         ; compute volume            ' 7
0535   0377 77          >            LD      (HL), A         ; write in output buffer    ' 7
0535   0378 2C          >            INC     L               ; next                      ' 4
0535   0379 D1          >            POP     DE              ; read 2 samples from ROM   ' 10+2
0535   037A 4B          >            LD      C, E            ; first sample              ' 4
0535   037B 0A          >            LD      A, (BC)         ; compute volume            ' 7
0535   037C 77          >            LD      (HL), A         ; write in output buffer    ' 7
0535   037D 2C          >            INC     L               ; next                      ' 4
0535   037E 4A          >            LD      C, D            ; second sample             ' 4
0535   037F 0A          >            LD      A, (BC)         ; compute volume            ' 7
0535   0380 77          >            LD      (HL), A         ; write in output buffer    ' 7
0535   0381 2C          >            INC     L               ; next                      ' 4
0536   0382                         wait4                       ;                       ' 4     |
0536   0382 00          >            NOP
0537   0383                         sampleOutput                ;                       ' 30    |
0537   0383 D9          >            EXX                     ;                           ' 4
0537   0384 0A          >            LD      A, (BC)         ; read sample from buffer   ' 7
0537   0385 82          >            ADD     D               ; unsign                    ' 4
0537   0386 0C          >            INC     C               ; increment with looping    ' 4
0537   0387 77          >            LD      (HL), A         ; play sample               ' 7
0537   0388 D9          >            EXX                     ;                           ' 4
0538   0389                         readAndClear2               ; 26 samples per loop   ' 56    |
0538   0389 D1          >            POP     DE              ; read 2 samples from ROM   ' 10+2
0538   038A 4B          >            LD      C, E            ; first sample              ' 4
0538   038B 0A          >            LD      A, (BC)         ; compute volume            ' 7
0538   038C 77          >            LD      (HL), A         ; write in output buffer    ' 7
0538   038D 2C          >            INC     L               ; next                      ' 4
0538   038E 4A          >            LD      C, D            ; second sample             ' 4
0538   038F 0A          >            LD      A, (BC)         ; compute volume            ' 7
0538   0390 77          >            LD      (HL), A         ; write in output buffer    ' 7
0538   0391 2C          >            INC     L               ; next                      ' 4
0539   0392                         readAndClear2               ;                       ' 56    | 4*223
0539   0392 D1          >            POP     DE              ; read 2 samples from ROM   ' 10+2
0539   0393 4B          >            LD      C, E            ; first sample              ' 4
0539   0394 0A          >            LD      A, (BC)         ; compute volume            ' 7
0539   0395 77          >            LD      (HL), A         ; write in output buffer    ' 7
0539   0396 2C          >            INC     L               ; next                      ' 4
0539   0397 4A          >            LD      C, D            ; second sample             ' 4
0539   0398 0A          >            LD      A, (BC)         ; compute volume            ' 7
0539   0399 77          >            LD      (HL), A         ; write in output buffer    ' 7
0539   039A 2C          >            INC     L               ; next                      ' 4
0540   039B                         readAndClear2               ;                       ' 56    |
0540   039B D1          >            POP     DE              ; read 2 samples from ROM   ' 10+2
0540   039C 4B          >            LD      C, E            ; first sample              ' 4
0540   039D 0A          >            LD      A, (BC)         ; compute volume            ' 7
0540   039E 77          >            LD      (HL), A         ; write in output buffer    ' 7
0540   039F 2C          >            INC     L               ; next                      ' 4
0540   03A0 4A          >            LD      C, D            ; second sample             ' 4
0540   03A1 0A          >            LD      A, (BC)         ; compute volume            ' 7
0540   03A2 77          >            LD      (HL), A         ; write in output buffer    ' 7
0540   03A3 2C          >            INC     L               ; next                      ' 4
0541   03A4                         wait6                       ; DE modified here      ' 6     |
0541   03A4 13          >            INC     DE
0542   03A5 DD 2D                   DEC     IXL                 ;                       ' 8     |
0543   03A7 C2 12 03                JP      NZ, loop_ch0        ;                       ' 10    |
0544   03AA             
0545   03AA             ; $26-$29
0546   03AA                         readAndClear20WhilePlay3    ;                       ' 666   |
0546   03AA D9          >            EXX                     ;                           ' 4
0546   03AB 0A          >            LD      A, (BC)         ; read sample from buffer   ' 7
0546   03AC 82          >            ADD     D               ; unsign                    ' 4
0546   03AD 0C          >            INC     C               ; increment with looping    ' 4
0546   03AE 77          >            LD      (HL), A         ; play sample               ' 7
0546   03AF D9          >            EXX                     ;                           ' 4
0546   03B0 D1          >            POP     DE              ; read 2 samples from ROM   ' 10+2
0546   03B1 4B          >            LD      C, E            ; first sample              ' 4
0546   03B2 0A          >            LD      A, (BC)         ; compute volume            ' 7
0546   03B3 77          >            LD      (HL), A         ; write in output buffer    ' 7
0546   03B4 2C          >            INC     L               ; next                      ' 4
0546   03B5 4A          >            LD      C, D            ; second sample             ' 4
0546   03B6 0A          >            LD      A, (BC)         ; compute volume            ' 7
0546   03B7 77          >            LD      (HL), A         ; write in output buffer    ' 7
0546   03B8 2C          >            INC     L               ; next                      ' 4
0546   03B9 D1          >            POP     DE              ; read 2 samples from ROM   ' 10+2
0546   03BA 4B          >            LD      C, E            ; first sample              ' 4
0546   03BB 0A          >            LD      A, (BC)         ; compute volume            ' 7
0546   03BC 77          >            LD      (HL), A         ; write in output buffer    ' 7
0546   03BD 2C          >            INC     L               ; next                      ' 4
0546   03BE 4A          >            LD      C, D            ; second sample             ' 4
0546   03BF 0A          >            LD      A, (BC)         ; compute volume            ' 7
0546   03C0 77          >            LD      (HL), A         ; write in output buffer    ' 7
0546   03C1 2C          >            INC     L               ; next                      ' 4
0546   03C2 D1          >            POP     DE              ; read 2 samples from ROM   ' 10+2
0546   03C3 4B          >            LD      C, E            ; first sample              ' 4
0546   03C4 0A          >            LD      A, (BC)         ; compute volume            ' 7
0546   03C5 77          >            LD      (HL), A         ; write in output buffer    ' 7
0546   03C6 2C          >            INC     L               ; next                      ' 4
0546   03C7 4A          >            LD      C, D            ; second sample             ' 4
0546   03C8 0A          >            LD      A, (BC)         ; compute volume            ' 7
0546   03C9 77          >            LD      (HL), A         ; write in output buffer    ' 7
0546   03CA 2C          >            INC     L               ; next                      ' 4
0546   03CB D1          >            POP     DE              ; read 2 samples from ROM   ' 10+2  |
0546   03CC 4B          >            LD      C, E            ; first sample              ' 4     | 25 (223)
0546   03CD ED 4F       >            LD      R, A
0546   03CF D9          >            EXX                     ;                           ' 4
0546   03D0 0A          >            LD      A, (BC)         ; read sample from buffer   ' 7
0546   03D1 82          >            ADD     D               ; unsign                    ' 4
0546   03D2 0C          >            INC     C               ; increment with looping    ' 4
0546   03D3 77          >            LD      (HL), A         ; play sample               ' 7
0546   03D4 D9          >            EXX                     ;                           ' 4
0546   03D5 0A          >            LD      A, (BC)         ; compute volume            ' 7
0546   03D6 77          >            LD      (HL), A         ; write in output buffer    ' 7
0546   03D7 2C          >            INC     L               ; next                      ' 4
0546   03D8 4A          >            LD      C, D            ; second sample             ' 4     | 40 (293)
0546   03D9 0A          >            LD      A, (BC)         ; compute volume            ' 7
0546   03DA 77          >            LD      (HL), A         ; write in output buffer    ' 7
0546   03DB 2C          >            INC     L               ; next                      ' 4
0546   03DC D1          >            POP     DE              ; read 2 samples from ROM   ' 10+2
0546   03DD 4B          >            LD      C, E            ; first sample              ' 4
0546   03DE 0A          >            LD      A, (BC)         ; compute volume            ' 7
0546   03DF 77          >            LD      (HL), A         ; write in output buffer    ' 7
0546   03E0 2C          >            INC     L               ; next                      ' 4
0546   03E1 4A          >            LD      C, D            ; second sample             ' 4
0546   03E2 0A          >            LD      A, (BC)         ; compute volume            ' 7
0546   03E3 77          >            LD      (HL), A         ; write in output buffer    ' 7
0546   03E4 2C          >            INC     L               ; next                      ' 4
0546   03E5 D1          >            POP     DE              ; read 2 samples from ROM   ' 10+2
0546   03E6 4B          >            LD      C, E            ; first sample              ' 4
0546   03E7 0A          >            LD      A, (BC)         ; compute volume            ' 7
0546   03E8 77          >            LD      (HL), A         ; write in output buffer    ' 7
0546   03E9 2C          >            INC     L               ; next                      ' 4
0546   03EA 4A          >            LD      C, D            ; second sample             ' 4
0546   03EB 0A          >            LD      A, (BC)         ; compute volume            ' 7
0546   03EC 77          >            LD      (HL), A         ; write in output buffer    ' 7
0546   03ED 2C          >            INC     L               ; next                      ' 4
0546   03EE D1          >            POP     DE              ; read 2 samples from ROM   ' 10+2  |
0546   03EF 4B          >            LD      C, E            ; first sample              ' 4     | 34 (446)
0546   03F0 0A          >            LD      A, (BC)         ; compute volume            ' 7
0546   03F1 77          >            LD      (HL), A         ; write in output buffer    ' 7
0546   03F2 2C          >            INC     L               ; next                      ' 4
0546   03F3 F6 00       >            OR      $0
0546   03F5 D9          >            EXX                     ;                           ' 4
0546   03F6 0A          >            LD      A, (BC)         ; read sample from buffer   ' 7
0546   03F7 82          >            ADD     D               ; unsign                    ' 4
0546   03F8 0C          >            INC     C               ; increment with looping    ' 4
0546   03F9 77          >            LD      (HL), A         ; play sample               ' 7
0546   03FA D9          >            EXX                     ;                           ' 4
0546   03FB 4A          >            LD      C, D            ; second sample             ' 4     | 22 (498)
0546   03FC 0A          >            LD      A, (BC)         ; compute volume            ' 7
0546   03FD 77          >            LD      (HL), A         ; write in output buffer    ' 7
0546   03FE 2C          >            INC     L               ; next                      ' 4
0546   03FF D1          >            POP     DE              ; read 2 samples from ROM   ' 10+2
0546   0400 4B          >            LD      C, E            ; first sample              ' 4
0546   0401 0A          >            LD      A, (BC)         ; compute volume            ' 7
0546   0402 77          >            LD      (HL), A         ; write in output buffer    ' 7
0546   0403 2C          >            INC     L               ; next                      ' 4
0546   0404 4A          >            LD      C, D            ; second sample             ' 4
0546   0405 0A          >            LD      A, (BC)         ; compute volume            ' 7
0546   0406 77          >            LD      (HL), A         ; write in output buffer    ' 7
0546   0407 2C          >            INC     L               ; next                      ' 4
0546   0408 D1          >            POP     DE              ; read 2 samples from ROM   ' 10+2
0546   0409 4B          >            LD      C, E            ; first sample              ' 4
0546   040A 0A          >            LD      A, (BC)         ; compute volume            ' 7
0546   040B 77          >            LD      (HL), A         ; write in output buffer    ' 7
0546   040C 2C          >            INC     L               ; next                      ' 4
0546   040D 4A          >            LD      C, D            ; second sample             ' 4
0546   040E 0A          >            LD      A, (BC)         ; compute volume            ' 7
0546   040F 77          >            LD      (HL), A         ; write in output buffer    ' 7
0546   0410 2C          >            INC     L               ; next                      ' 4
0546   0411 D1          >            POP     DE              ; read 2 samples from ROM   ' 10+2
0546   0412 4B          >            LD      C, E            ; first sample              ' 4
0546   0413 0A          >            LD      A, (BC)         ; compute volume            ' 7
0546   0414 77          >            LD      (HL), A         ; write in output buffer    ' 7
0546   0415 2C          >            INC     L               ; next                      ' 4
0546   0416 4A          >            LD      C, D            ; second sample             ' 4
0546   0417 0A          >            LD      A, (BC)         ; compute volume            ' 7
0546   0418 77          >            LD      (HL), A         ; write in output buffer    ' 7
0546   0419 2C          >            INC     L               ; next                      ' 4
0547   041A                         wait4                       ;                       ' 4     |
0547   041A 00          >            NOP
0548   041B                         sampleOutput                ;                       ' 30    | 4*223
0548   041B D9          >            EXX                     ;                           ' 4
0548   041C 0A          >            LD      A, (BC)         ; read sample from buffer   ' 7
0548   041D 82          >            ADD     D               ; unsign                    ' 4
0548   041E 0C          >            INC     C               ; increment with looping    ' 4
0548   041F 77          >            LD      (HL), A         ; play sample               ' 7
0548   0420 D9          >            EXX                     ;                           ' 4
0549   0421                         readAndClear2               ; process 22 samples    ' 56    |
0549   0421 D1          >            POP     DE              ; read 2 samples from ROM   ' 10+2
0549   0422 4B          >            LD      C, E            ; first sample              ' 4
0549   0423 0A          >            LD      A, (BC)         ; compute volume            ' 7
0549   0424 77          >            LD      (HL), A         ; write in output buffer    ' 7
0549   0425 2C          >            INC     L               ; next                      ' 4
0549   0426 4A          >            LD      C, D            ; second sample             ' 4
0549   0427 0A          >            LD      A, (BC)         ; compute volume            ' 7
0549   0428 77          >            LD      (HL), A         ; write in output buffer    ' 7
0549   0429 2C          >            INC     L               ; next                      ' 4
0550   042A                         updateChannelData 0         ; update channel data   ' 76    |
0550   042A 2A 14 01    >            LD      HL, (IWAVADR+(ch*4))    ; increment address ' 16
0550   042D 23          >            INC     HL                      ;                   ' 6
0550   042E 22 14 01    >            LD      (IWAVADR+(ch*4)), HL    ;                   ' 16    (38)
0550   0431 2A 16 01    >            LD      HL, (IWAVLEN+(ch*4))    ; decrement lenght  ' 16
0550   0434 2B          >            DEC     HL                      ;                   ' 6
0550   0435 22 16 01    >            LD      (IWAVLEN+(ch*4)), HL    ;                   ' 16    (76)
0551   0438                         wait60                      ;                       ' 60    |
0551   0438 3E 03       >            LD      A, w            ; 7-2
0551   043A 3D          >            DEC     A               ; 4
0551   043B 20 FD       >            JR      NZ, .loop       ; 12
0551   043D C3 40 04    >            JP      .go
0552   0440             
0553   0440             ; $2A
0554   0440                         sampleOutput                ;                       ' 30    |
0554   0440 D9          >            EXX                     ;                           ' 4
0554   0441 0A          >            LD      A, (BC)         ; read sample from buffer   ' 7
0554   0442 82          >            ADD     D               ; unsign                    ' 4
0554   0443 0C          >            INC     C               ; increment with looping    ' 4
0554   0444 77          >            LD      (HL), A         ; play sample               ' 7
0554   0445 D9          >            EXX                     ;                           ' 4
0555   0446                         checkChannelEnd 0           ;                       ' 180   | 223
0555   0446 2A 16 01    >            LD      HL, (IWAVLEN+(ch*4))    ; get sample lenght ' 16
0555   0449 7C          >            LD      A, H                    ;                   ' 4
0555   044A B5          >            OR      L                       ;                   ' 4
0555   044B CA 5B 04    >            JP      Z, .done                ; sample done ?     ' 10    (34)
0555   044E 3E 07       >            LD      A, w            ; 7-2
0555   0450 3D          >            DEC     A               ; 4
0555   0451 20 FD       >            JR      NZ, .loop       ; 12
0555   0453 ED 4F       >            LD      R, A
0555   0455 ED 4F       >            LD      R, A
0555   0457 00          >            NOP
0555   0458 C3 91 04    >            JP      .end                    ;                   ' 10    (180)
0555   045B 21 03 01    >            LD      HL, STATUS+1            ;                   ' 10
0555   045E CB 46       >            BIT     STATPLAY_SFT+ch, (HL)   ; get status        ' 12
0555   0460 CA 7B 04    >            JP      Z, .stop            ;                       ' 10    (66)
0555   0463 2A 04 01    >            LD      HL, (WAVADR+(ch*4))     ;                   ' 16
0555   0466 22 14 01    >            LD      (IWAVADR+(ch*4)), HL    ;                   ' 16
0555   0469 2A 06 01    >            LD      HL, (WAVLEN+(ch*4))     ;                   ' 16
0555   046C 22 16 01    >            LD      (IWAVLEN+(ch*4)), HL    ;                   ' 16
0555   046F ED 4F       >            LD      R, A
0555   0471 ED 4F       >            LD      R, A
0555   0473 ED 4F       >            LD      R, A
0555   0475 ED 4F       >            LD      R, A
0555   0477 00          >            NOP
0555   0478 C3 91 04    >            JP      .end                ;                       ' 10    (180)
0555   047B 2A 28 01    >            LD      HL, (NULLWAVADR)        ;                   ' 16
0555   047E 22 14 01    >            LD      (IWAVADR+(ch*4)), HL    ;                   ' 16
0555   0481 2A 2A 01    >            LD      HL, (NULLWAVLEN)        ;                   ' 16
0555   0484 22 16 01    >            LD      (IWAVLEN+(ch*4)), HL    ;                   ' 16
0555   0487 21 02 01    >            LD      HL, STATUS              ;                   ' 10
0555   048A CB 86       >            RES     STATPLAY_SFT+ch, (HL)   ; clear status      ' 15
0555   048C 21 03 01    >            LD      HL, STATUS+1            ;                   ' 10
0555   048F CB 86       >            RES     STATPLAY_SFT+ch, (HL)   ; clear status      ' 15
0556   0491                         wait13                      ;                       ' 13    |
0556   0491 ED 4F       >            LD      R, A
0556   0493 00          >            NOP
0557   0494             
0558   0494             ; channel 1
0559   0494             ; ---------
0560   0494             
0561   0494             ; $2B
0562   0494                         sampleOutput                ;                       ' 30    |
0562   0494 D9          >            EXX                     ;                           ' 4
0562   0495 0A          >            LD      A, (BC)         ; read sample from buffer   ' 7
0562   0496 82          >            ADD     D               ; unsign                    ' 4
0562   0497 0C          >            INC     C               ; increment with looping    ' 4
0562   0498 77          >            LD      (HL), A         ; play sample               ' 7
0562   0499 D9          >            EXX                     ;                           ' 4
0563   049A                         handlePlayCommand 1         ;                       ' 146   | 223
0563   049A 21 00 01    >            LD      HL, COMMAND             ;                   ' 10
0563   049D CB 4E       >            BIT     COMPLAY_SFT+ch, (HL)    ; play command ?    ' 12
0563   049F C2 AF 04    >            JP      NZ, .do_command     ;                       ' 10    (32)
0563   04A2 3E 05       >            LD      A, w            ; 7-2
0563   04A4 3D          >            DEC     A               ; 4
0563   04A5 20 FD       >            JR      NZ, .loop       ; 12
0563   04A7 ED 4F       >            LD      R, A
0563   04A9 ED 4F       >            LD      R, A
0563   04AB 00          >            NOP
0563   04AC C3 C5 04    >            JP      .end                ;                       ' 10    (146)
0563   04AF 21 00 01    >            LD      HL, COMMAND             ;                   ' 10
0563   04B2 CB 8E       >            RES     COMPLAY_SFT+ch, (HL)    ; clear command     ' 15
0563   04B4 2A 08 01    >            LD      HL, (WAVADR+(ch*4))     ;                   ' 16
0563   04B7 22 18 01    >            LD      (IWAVADR+(ch*4)), HL    ;                   ' 16
0563   04BA 2A 0A 01    >            LD      HL, (WAVLEN+(ch*4))     ;                   ' 16
0563   04BD 22 1A 01    >            LD      (IWAVLEN+(ch*4)), HL    ;                   ' 16
0563   04C0 21 02 01    >            LD      HL, STATUS              ;                   ' 10
0563   04C3 CB CE       >            SET     STATPLAY_SFT+ch, (HL)   ; set status        ' 15
0564   04C5                         prepareVolume 1             ;                       ' 28    |
0564   04C5 21 25 01    >            LD      HL, WAVVOL+ch       ; point to volume info  ' 10
0564   04C8 7E          >            LD      A, (HL)             ; A = volume            ' 7
0564   04C9 F6 10       >            OR      $10                 ; ajusted for LUT       ' 7
0564   04CB 47          >            LD      B, A                ; save to B             ' 4
0565   04CC                         wait19                      ;                       ' 19    |
0565   04CC 18 00       >            JR      .go
0565   04CE F6 00       >            OR      $0
0566   04D0             
0567   04D0             ; $2C
0568   04D0                         sampleOutput                ;                       ' 30    |
0568   04D0 D9          >            EXX                     ;                           ' 4
0568   04D1 0A          >            LD      A, (BC)         ; read sample from buffer   ' 7
0568   04D2 82          >            ADD     D               ; unsign                    ' 4
0568   04D3 0C          >            INC     C               ; increment with looping    ' 4
0568   04D4 77          >            LD      (HL), A         ; play sample               ' 7
0568   04D5 D9          >            EXX                     ;                           ' 4
0569   04D6                         prepareChannel 1            ;                       ' 182   | 223
0569   04D6 21 18 01    >            LD      HL, IWAVADR+(ch*4)  ; point to sample adr   ' 10
0569   04D9 7E          >            LD      A, (HL)             ; A = bit 8-15          ' 7
0569   04DA 5F          >            LD      E, A                ; save to E             ' 4
0569   04DB 2C          >            INC     L                   ;                       ' 4
0569   04DC 17          >            RLA                         ; C flag = bit 15       ' 4
0569   04DD 7E          >            LD      A, (HL)             ; A = bit 16-23         ' 7
0569   04DE 17          >            RLA                         ; A = bit 15-22         ' 4     (40)
0569   04DF 21 00 60    >            LD  HL, BANKREG         ; HL = BANKREG              ' 10
0569   04E2 77          >            LD  (HL), A             ; #1 (bit 15)               ' 7
0569   04E3 0F          >            RRCA                     ;                          ' 4
0569   04E4 77          >            LD  (HL), A             ; #2 (bit 16)               ' 7
0569   04E5 0F          >            RRCA                     ;                          ' 4
0569   04E6 77          >            LD  (HL), A             ; #3 (bit 17)               ' 7
0569   04E7 0F          >            RRCA                     ;                          ' 4
0569   04E8 77          >            LD  (HL), A             ; #4 (bit 18)               ' 7
0569   04E9 0F          >            RRCA                     ;                          ' 4
0569   04EA 77          >            LD  (HL), A             ; #5 (bit 19)               ' 7
0569   04EB 0F          >            RRCA                     ;                          ' 4
0569   04EC 77          >            LD  (HL), A             ; #6 (bit 20)               ' 7
0569   04ED 0F          >            RRCA                     ;                          ' 4
0569   04EE 77          >            LD  (HL), A             ; #7 (bit 21)               ' 7
0569   04EF 75          >            LD  (HL), L             ; #8 (bit 22 = 0)           ' 7
0569   04F0 75          >            LD  (HL), L             ; #9 (bit 23 = 0)           ' 7
0569   04F1 7B          >            LD      A, E                ; A = bit 8-15          ' 4
0569   04F2 F6 80       >            OR      $80                 ; A = $80 | bit 8-14    ' 7
0569   04F4 67          >            LD      H, A                ;                       ' 4
0569   04F5 AF          >            XOR     A                   ;                       ' 4
0569   04F6 6F          >            LD      L, A                ; L = $00               ' 4
0569   04F7 F9          >            LD      SP, HL              ; SP = sample src       ' 6
0569   04F8 2A 2C 01    >            LD      HL, (WRITEBUF)      ;                       ' 16    (182)
0570   04FB DD 2E 15                LD      IXL, 21             ; prepare loop          ' 11    |
0571   04FE             
0572   04FE             ; $2D-$6B
0573   04FE             loop_ch1
0574   04FE                         readAndMix12WhilePlay3      ;                       ' 640   |
0574   04FE D9          >            EXX                     ;                           ' 4
0574   04FF 0A          >            LD      A, (BC)         ; read sample from buffer   ' 7
0574   0500 82          >            ADD     D               ; unsign                    ' 4
0574   0501 0C          >            INC     C               ; increment with looping    ' 4
0574   0502 77          >            LD      (HL), A         ; play sample               ' 7
0574   0503 D9          >            EXX                     ;                           ' 4
0574   0504 D1          >            POP     DE              ; read 2 samples from ROM   ' 10+2
0574   0505 4B          >            LD      C, E            ; first sample              ' 4     |
0574   0506 0A          >            LD      A, (BC)         ; compute volume            ' 7     |
0574   0507 86          >            ADD     (HL)            ; mix                       ' 7     | 24
0574   0508 E2 0F 05    >            JP      PO, .ok         ; check overflow            ' 10    |
0574   050B 3E 7F       >            LD      A, $7F          ; fix overflow              ' 7     |
0574   050D CE 00       >            ADC     $0              ; A = $7F/$80               ' 7     | +14
0574   050F 77          >            LD      (HL), A         ; write sample in buffer    ' 7     | 11 (35)
0574   0510 2C          >            INC     L               ; next                      ' 4     |
0574   0511 4A          >            LD      C, D            ; second sample             ' 4     |
0574   0512 0A          >            LD      A, (BC)         ; compute volume            ' 7     |
0574   0513 86          >            ADD     (HL)            ; mix                       ' 7     | 24
0574   0514 E2 1B 05    >            JP      PO, .ok         ; check overflow            ' 10    |
0574   0517 3E 7F       >            LD      A, $7F          ; fix overflow              ' 7     |
0574   0519 CE 00       >            ADC     $0              ; A = $7F/$80               ' 7     | +14
0574   051B 77          >            LD      (HL), A         ; write sample in buffer    ' 7     | 11 (35)
0574   051C 2C          >            INC     L               ; next                      ' 4     |
0574   051D D1          >            POP     DE              ; read 2 samples from ROM   ' 10+2
0574   051E 4B          >            LD      C, E            ; first sample              ' 4     |
0574   051F 0A          >            LD      A, (BC)         ; compute volume            ' 7     |
0574   0520 86          >            ADD     (HL)            ; mix                       ' 7     | 24
0574   0521 E2 28 05    >            JP      PO, .ok         ; check overflow            ' 10    |
0574   0524 3E 7F       >            LD      A, $7F          ; fix overflow              ' 7     |
0574   0526 CE 00       >            ADC     $0              ; A = $7F/$80               ' 7     | +14
0574   0528 77          >            LD      (HL), A         ; write sample in buffer    ' 7     | 11 (35)
0574   0529 2C          >            INC     L               ; next                      ' 4     |
0574   052A 4A          >            LD      C, D            ; second sample             ' 4     |
0574   052B 0A          >            LD      A, (BC)         ; compute volume            ' 7     |
0574   052C 86          >            ADD     (HL)            ; mix                       ' 7     | 24
0574   052D E2 34 05    >            JP      PO, .ok         ; check overflow            ' 10    |
0574   0530 3E 7F       >            LD      A, $7F          ; fix overflow              ' 7     |
0574   0532 CE 00       >            ADC     $0              ; A = $7F/$80               ' 7     | +14
0574   0534 77          >            LD      (HL), A         ; write sample in buffer    ' 7     | 11 (35)
0574   0535 2C          >            INC     L               ; next                      ' 4     |
0574   0536 D1          >            POP     DE              ; read 2 samples from ROM   ' 10+2 (222)
0574   0537 D9          >            EXX                     ;                           ' 4
0574   0538 0A          >            LD      A, (BC)         ; read sample from buffer   ' 7
0574   0539 82          >            ADD     D               ; unsign                    ' 4
0574   053A 0C          >            INC     C               ; increment with looping    ' 4
0574   053B 77          >            LD      (HL), A         ; play sample               ' 7
0574   053C D9          >            EXX                     ;                           ' 4
0574   053D 4B          >            LD      C, E            ; first sample              ' 4     |
0574   053E 0A          >            LD      A, (BC)         ; compute volume            ' 7     |
0574   053F 86          >            ADD     (HL)            ; mix                       ' 7     | 24
0574   0540 E2 47 05    >            JP      PO, .ok         ; check overflow            ' 10    |
0574   0543 3E 7F       >            LD      A, $7F          ; fix overflow              ' 7     |
0574   0545 CE 00       >            ADC     $0              ; A = $7F/$80               ' 7     | +14
0574   0547 77          >            LD      (HL), A         ; write sample in buffer    ' 7     | 11 (35)
0574   0548 2C          >            INC     L               ; next                      ' 4     |
0574   0549 4A          >            LD      C, D            ; second sample             ' 4     |
0574   054A 0A          >            LD      A, (BC)         ; compute volume            ' 7     |
0574   054B 86          >            ADD     (HL)            ; mix                       ' 7     | 24
0574   054C E2 53 05    >            JP      PO, .ok         ; check overflow            ' 10    |
0574   054F 3E 7F       >            LD      A, $7F          ; fix overflow              ' 7     |
0574   0551 CE 00       >            ADC     $0              ; A = $7F/$80               ' 7     | +14
0574   0553 77          >            LD      (HL), A         ; write sample in buffer    ' 7     | 11 (35)
0574   0554 2C          >            INC     L               ; next                      ' 4     |
0574   0555 D1          >            POP     DE              ; read 2 samples from ROM   ' 10+2
0574   0556 4B          >            LD      C, E            ; first sample              ' 4     |
0574   0557 0A          >            LD      A, (BC)         ; compute volume            ' 7     |
0574   0558 86          >            ADD     (HL)            ; mix                       ' 7     | 24
0574   0559 E2 60 05    >            JP      PO, .ok         ; check overflow            ' 10    |
0574   055C 3E 7F       >            LD      A, $7F          ; fix overflow              ' 7     |
0574   055E CE 00       >            ADC     $0              ; A = $7F/$80               ' 7     | +14
0574   0560 77          >            LD      (HL), A         ; write sample in buffer    ' 7     | 11 (35)
0574   0561 2C          >            INC     L               ; next                      ' 4     |
0574   0562 4A          >            LD      C, D            ; second sample             ' 4     |
0574   0563 0A          >            LD      A, (BC)         ; compute volume            ' 7     |
0574   0564 86          >            ADD     (HL)            ; mix                       ' 7     | 24
0574   0565 E2 6C 05    >            JP      PO, .ok         ; check overflow            ' 10    |
0574   0568 3E 7F       >            LD      A, $7F          ; fix overflow              ' 7     |
0574   056A CE 00       >            ADC     $0              ; A = $7F/$80               ' 7     | +14
0574   056C 77          >            LD      (HL), A         ; write sample in buffer    ' 7     | 11 (35)
0574   056D 2C          >            INC     L               ; next                      ' 4     |
0574   056E D1          >            POP     DE              ; read 2 samples from ROM   ' 10+2  |
0574   056F 4B          >            LD      C, E            ; first sample              ' 4     | 26 (446)
0574   0570 C3 73 05    >            JP      .go
0574   0573 D9          >            EXX                     ;                           ' 4
0574   0574 0A          >            LD      A, (BC)         ; read sample from buffer   ' 7
0574   0575 82          >            ADD     D               ; unsign                    ' 4
0574   0576 0C          >            INC     C               ; increment with looping    ' 4
0574   0577 77          >            LD      (HL), A         ; play sample               ' 7
0574   0578 D9          >            EXX                     ;                           ' 4
0574   0579 0A          >            LD      A, (BC)         ; compute volume            ' 7     |
0574   057A 86          >            ADD     (HL)            ; mix                       ' 7     | 24
0574   057B E2 82 05    >            JP      PO, .ok         ; check overflow            ' 10    |
0574   057E 3E 7F       >            LD      A, $7F          ; fix overflow              ' 7     |
0574   0580 CE 00       >            ADC     $0              ; A = $7F/$80               ' 7     | +14
0574   0582 77          >            LD      (HL), A         ; write sample in buffer    ' 7     | 11 (35)
0574   0583 2C          >            INC     L               ; next                      ' 4     |
0574   0584 4A          >            LD      C, D            ; second sample             ' 4     | 74 (550)
0574   0585 0A          >            LD      A, (BC)         ; compute volume            ' 7     |
0574   0586 86          >            ADD     (HL)            ; mix                       ' 7     | 24
0574   0587 E2 8E 05    >            JP      PO, .ok         ; check overflow            ' 10    |
0574   058A 3E 7F       >            LD      A, $7F          ; fix overflow              ' 7     |
0574   058C CE 00       >            ADC     $0              ; A = $7F/$80               ' 7     | +14
0574   058E 77          >            LD      (HL), A         ; write sample in buffer    ' 7     | 11 (35)
0574   058F 2C          >            INC     L               ; next                      ' 4     |
0574   0590 D1          >            POP     DE              ; read 2 samples from ROM   ' 10+2
0574   0591 4B          >            LD      C, E            ; first sample              ' 4     |
0574   0592 0A          >            LD      A, (BC)         ; compute volume            ' 7     |
0574   0593 86          >            ADD     (HL)            ; mix                       ' 7     | 24
0574   0594 E2 9B 05    >            JP      PO, .ok         ; check overflow            ' 10    |
0574   0597 3E 7F       >            LD      A, $7F          ; fix overflow              ' 7     |
0574   0599 CE 00       >            ADC     $0              ; A = $7F/$80               ' 7     | +14
0574   059B 77          >            LD      (HL), A         ; write sample in buffer    ' 7     | 11 (35)
0574   059C 2C          >            INC     L               ; next                      ' 4     |
0574   059D 4A          >            LD      C, D            ; second sample             ' 4     |
0574   059E 0A          >            LD      A, (BC)         ; compute volume            ' 7     |
0574   059F 86          >            ADD     (HL)            ; mix                       ' 7     | 24
0574   05A0 E2 A7 05    >            JP      PO, .ok         ; check overflow            ' 10    |
0574   05A3 3E 7F       >            LD      A, $7F          ; fix overflow              ' 7     |
0574   05A5 CE 00       >            ADC     $0              ; A = $7F/$80               ' 7     | +14
0574   05A7 77          >            LD      (HL), A         ; write sample in buffer    ' 7     | 11 (35)
0574   05A8 2C          >            INC     L               ; next                      ' 4     |
0575   05A9                         wait11                      ;                       ' 11    | 3*223
0575   05A9 F6 00       >            OR      $0
0575   05AB 00          >            NOP
0576   05AC DD 2D                   DEC     IXL                 ; 12 samples per loop   ' 8     |
0577   05AE C2 FE 04                JP      NZ, loop_ch1        ;                       ' 10    |
0578   05B1             
0579   05B1             ; $6C
0580   05B1                         sampleOutput                ;                       ' 30    |
0580   05B1 D9          >            EXX                     ;                           ' 4
0580   05B2 0A          >            LD      A, (BC)         ; read sample from buffer   ' 7
0580   05B3 82          >            ADD     D               ; unsign                    ' 4
0580   05B4 0C          >            INC     C               ; increment with looping    ' 4
0580   05B5 77          >            LD      (HL), A         ; play sample               ' 7
0580   05B6 D9          >            EXX                     ;                           ' 4
0581   05B7                         readAndMix2                 ;                       ' 90    | 223
0581   05B7 D1          >            POP     DE              ; read 2 samples from ROM   ' 10+2
0581   05B8 4B          >            LD      C, E            ; first sample              ' 4     |
0581   05B9 0A          >            LD      A, (BC)         ; compute volume            ' 7     |
0581   05BA 86          >            ADD     (HL)            ; mix                       ' 7     | 24
0581   05BB E2 C2 05    >            JP      PO, .ok         ; check overflow            ' 10    |
0581   05BE 3E 7F       >            LD      A, $7F          ; fix overflow              ' 7     |
0581   05C0 CE 00       >            ADC     $0              ; A = $7F/$80               ' 7     | +14
0581   05C2 77          >            LD      (HL), A         ; write sample in buffer    ' 7     | 11 (35)
0581   05C3 2C          >            INC     L               ; next                      ' 4     |
0581   05C4 4A          >            LD      C, D            ; second sample             ' 4     |
0581   05C5 0A          >            LD      A, (BC)         ; compute volume            ' 7     |
0581   05C6 86          >            ADD     (HL)            ; mix                       ' 7     | 24
0581   05C7 E2 CE 05    >            JP      PO, .ok         ; check overflow            ' 10    |
0581   05CA 3E 7F       >            LD      A, $7F          ; fix overflow              ' 7     |
0581   05CC CE 00       >            ADC     $0              ; A = $7F/$80               ' 7     | +14
0581   05CE 77          >            LD      (HL), A         ; write sample in buffer    ' 7     | 11 (35)
0581   05CF 2C          >            INC     L               ; next                      ' 4     |
0582   05D0                         readAndMix2                 ; last 4 samples        ' 90    |
0582   05D0 D1          >            POP     DE              ; read 2 samples from ROM   ' 10+2
0582   05D1 4B          >            LD      C, E            ; first sample              ' 4     |
0582   05D2 0A          >            LD      A, (BC)         ; compute volume            ' 7     |
0582   05D3 86          >            ADD     (HL)            ; mix                       ' 7     | 24
0582   05D4 E2 DB 05    >            JP      PO, .ok         ; check overflow            ' 10    |
0582   05D7 3E 7F       >            LD      A, $7F          ; fix overflow              ' 7     |
0582   05D9 CE 00       >            ADC     $0              ; A = $7F/$80               ' 7     | +14
0582   05DB 77          >            LD      (HL), A         ; write sample in buffer    ' 7     | 11 (35)
0582   05DC 2C          >            INC     L               ; next                      ' 4     |
0582   05DD 4A          >            LD      C, D            ; second sample             ' 4     |
0582   05DE 0A          >            LD      A, (BC)         ; compute volume            ' 7     |
0582   05DF 86          >            ADD     (HL)            ; mix                       ' 7     | 24
0582   05E0 E2 E7 05    >            JP      PO, .ok         ; check overflow            ' 10    |
0582   05E3 3E 7F       >            LD      A, $7F          ; fix overflow              ' 7     |
0582   05E5 CE 00       >            ADC     $0              ; A = $7F/$80               ' 7     | +14
0582   05E7 77          >            LD      (HL), A         ; write sample in buffer    ' 7     | 11 (35)
0582   05E8 2C          >            INC     L               ; next                      ' 4     |
0583   05E9                         wait13                      ;                       ' 13    |
0583   05E9 ED 4F       >            LD      R, A
0583   05EB 00          >            NOP
0584   05EC             
0585   05EC             ; $6D
0586   05EC                         sampleOutput                ;                       ' 30    |
0586   05EC D9          >            EXX                     ;                           ' 4
0586   05ED 0A          >            LD      A, (BC)         ; read sample from buffer   ' 7
0586   05EE 82          >            ADD     D               ; unsign                    ' 4
0586   05EF 0C          >            INC     C               ; increment with looping    ' 4
0586   05F0 77          >            LD      (HL), A         ; play sample               ' 7
0586   05F1 D9          >            EXX                     ;                           ' 4
0587   05F2                         updateChannelData 1         ;                       ' 76    | 223
0587   05F2 2A 18 01    >            LD      HL, (IWAVADR+(ch*4))    ; increment address ' 16
0587   05F5 23          >            INC     HL                      ;                   ' 6
0587   05F6 22 18 01    >            LD      (IWAVADR+(ch*4)), HL    ;                   ' 16    (38)
0587   05F9 2A 1A 01    >            LD      HL, (IWAVLEN+(ch*4))    ; decrement lenght  ' 16
0587   05FC 2B          >            DEC     HL                      ;                   ' 6
0587   05FD 22 1A 01    >            LD      (IWAVLEN+(ch*4)), HL    ;                   ' 16    (76)
0588   0600                         wait117                     ;                       ' 117   |
0588   0600 3E 06       >            LD      A, w            ; 7-2
0588   0602 3D          >            DEC     A               ; 4
0588   0603 20 FD       >            JR      NZ, .loop       ; 12
0588   0605 18 00       >            JR      .go
0588   0607 F6 00       >            OR      $0
0589   0609             
0590   0609             ; $6E
0591   0609                         sampleOutput                ;                       ' 30    |
0591   0609 D9          >            EXX                     ;                           ' 4
0591   060A 0A          >            LD      A, (BC)         ; read sample from buffer   ' 7
0591   060B 82          >            ADD     D               ; unsign                    ' 4
0591   060C 0C          >            INC     C               ; increment with looping    ' 4
0591   060D 77          >            LD      (HL), A         ; play sample               ' 7
0591   060E D9          >            EXX                     ;                           ' 4
0592   060F                         checkChannelEnd 1           ;                       ' 180   | 223
0592   060F 2A 1A 01    >            LD      HL, (IWAVLEN+(ch*4))    ; get sample lenght ' 16
0592   0612 7C          >            LD      A, H                    ;                   ' 4
0592   0613 B5          >            OR      L                       ;                   ' 4
0592   0614 CA 24 06    >            JP      Z, .done                ; sample done ?     ' 10    (34)
0592   0617 3E 07       >            LD      A, w            ; 7-2
0592   0619 3D          >            DEC     A               ; 4
0592   061A 20 FD       >            JR      NZ, .loop       ; 12
0592   061C ED 4F       >            LD      R, A
0592   061E ED 4F       >            LD      R, A
0592   0620 00          >            NOP
0592   0621 C3 5A 06    >            JP      .end                    ;                   ' 10    (180)
0592   0624 21 03 01    >            LD      HL, STATUS+1            ;                   ' 10
0592   0627 CB 4E       >            BIT     STATPLAY_SFT+ch, (HL)   ; get status        ' 12
0592   0629 CA 44 06    >            JP      Z, .stop            ;                       ' 10    (66)
0592   062C 2A 08 01    >            LD      HL, (WAVADR+(ch*4))     ;                   ' 16
0592   062F 22 18 01    >            LD      (IWAVADR+(ch*4)), HL    ;                   ' 16
0592   0632 2A 0A 01    >            LD      HL, (WAVLEN+(ch*4))     ;                   ' 16
0592   0635 22 1A 01    >            LD      (IWAVLEN+(ch*4)), HL    ;                   ' 16
0592   0638 ED 4F       >            LD      R, A
0592   063A ED 4F       >            LD      R, A
0592   063C ED 4F       >            LD      R, A
0592   063E ED 4F       >            LD      R, A
0592   0640 00          >            NOP
0592   0641 C3 5A 06    >            JP      .end                ;                       ' 10    (180)
0592   0644 2A 28 01    >            LD      HL, (NULLWAVADR)        ;                   ' 16
0592   0647 22 18 01    >            LD      (IWAVADR+(ch*4)), HL    ;                   ' 16
0592   064A 2A 2A 01    >            LD      HL, (NULLWAVLEN)        ;                   ' 16
0592   064D 22 1A 01    >            LD      (IWAVLEN+(ch*4)), HL    ;                   ' 16
0592   0650 21 02 01    >            LD      HL, STATUS              ;                   ' 10
0592   0653 CB 8E       >            RES     STATPLAY_SFT+ch, (HL)   ; clear status      ' 15
0592   0655 21 03 01    >            LD      HL, STATUS+1            ;                   ' 10
0592   0658 CB 8E       >            RES     STATPLAY_SFT+ch, (HL)   ; clear status      ' 15
0593   065A                         wait13                      ;                       ' 13    |
0593   065A ED 4F       >            LD      R, A
0593   065C 00          >            NOP
0594   065D             
0595   065D             ; channel 2
0596   065D             ; ---------
0597   065D             
0598   065D             ; $6F
0599   065D                         sampleOutput                ;                       ' 30    |
0599   065D D9          >            EXX                     ;                           ' 4
0599   065E 0A          >            LD      A, (BC)         ; read sample from buffer   ' 7
0599   065F 82          >            ADD     D               ; unsign                    ' 4
0599   0660 0C          >            INC     C               ; increment with looping    ' 4
0599   0661 77          >            LD      (HL), A         ; play sample               ' 7
0599   0662 D9          >            EXX                     ;                           ' 4
0600   0663                         handlePlayCommand 2         ;                       ' 146   | 223
0600   0663 21 00 01    >            LD      HL, COMMAND             ;                   ' 10
0600   0666 CB 56       >            BIT     COMPLAY_SFT+ch, (HL)    ; play command ?    ' 12
0600   0668 C2 78 06    >            JP      NZ, .do_command     ;                       ' 10    (32)
0600   066B 3E 05       >            LD      A, w            ; 7-2
0600   066D 3D          >            DEC     A               ; 4
0600   066E 20 FD       >            JR      NZ, .loop       ; 12
0600   0670 ED 4F       >            LD      R, A
0600   0672 ED 4F       >            LD      R, A
0600   0674 00          >            NOP
0600   0675 C3 8E 06    >            JP      .end                ;                       ' 10    (146)
0600   0678 21 00 01    >            LD      HL, COMMAND             ;                   ' 10
0600   067B CB 96       >            RES     COMPLAY_SFT+ch, (HL)    ; clear command     ' 15
0600   067D 2A 0C 01    >            LD      HL, (WAVADR+(ch*4))     ;                   ' 16
0600   0680 22 1C 01    >            LD      (IWAVADR+(ch*4)), HL    ;                   ' 16
0600   0683 2A 0E 01    >            LD      HL, (WAVLEN+(ch*4))     ;                   ' 16
0600   0686 22 1E 01    >            LD      (IWAVLEN+(ch*4)), HL    ;                   ' 16
0600   0689 21 02 01    >            LD      HL, STATUS              ;                   ' 10
0600   068C CB D6       >            SET     STATPLAY_SFT+ch, (HL)   ; set status        ' 15
0601   068E                         prepareVolume 2             ;                       ' 28    |
0601   068E 21 26 01    >            LD      HL, WAVVOL+ch       ; point to volume info  ' 10
0601   0691 7E          >            LD      A, (HL)             ; A = volume            ' 7
0601   0692 F6 10       >            OR      $10                 ; ajusted for LUT       ' 7
0601   0694 47          >            LD      B, A                ; save to B             ' 4
0602   0695                         wait19                      ;                       ' 19    |
0602   0695 18 00       >            JR      .go
0602   0697 F6 00       >            OR      $0
0603   0699             
0604   0699             ; $70
0605   0699                         sampleOutput                ;                       ' 30    |
0605   0699 D9          >            EXX                     ;                           ' 4
0605   069A 0A          >            LD      A, (BC)         ; read sample from buffer   ' 7
0605   069B 82          >            ADD     D               ; unsign                    ' 4
0605   069C 0C          >            INC     C               ; increment with looping    ' 4
0605   069D 77          >            LD      (HL), A         ; play sample               ' 7
0605   069E D9          >            EXX                     ;                           ' 4
0606   069F                         prepareChannel 2            ;                       ' 182   | 223
0606   069F 21 1C 01    >            LD      HL, IWAVADR+(ch*4)  ; point to sample adr   ' 10
0606   06A2 7E          >            LD      A, (HL)             ; A = bit 8-15          ' 7
0606   06A3 5F          >            LD      E, A                ; save to E             ' 4
0606   06A4 2C          >            INC     L                   ;                       ' 4
0606   06A5 17          >            RLA                         ; C flag = bit 15       ' 4
0606   06A6 7E          >            LD      A, (HL)             ; A = bit 16-23         ' 7
0606   06A7 17          >            RLA                         ; A = bit 15-22         ' 4     (40)
0606   06A8 21 00 60    >            LD  HL, BANKREG         ; HL = BANKREG              ' 10
0606   06AB 77          >            LD  (HL), A             ; #1 (bit 15)               ' 7
0606   06AC 0F          >            RRCA                     ;                          ' 4
0606   06AD 77          >            LD  (HL), A             ; #2 (bit 16)               ' 7
0606   06AE 0F          >            RRCA                     ;                          ' 4
0606   06AF 77          >            LD  (HL), A             ; #3 (bit 17)               ' 7
0606   06B0 0F          >            RRCA                     ;                          ' 4
0606   06B1 77          >            LD  (HL), A             ; #4 (bit 18)               ' 7
0606   06B2 0F          >            RRCA                     ;                          ' 4
0606   06B3 77          >            LD  (HL), A             ; #5 (bit 19)               ' 7
0606   06B4 0F          >            RRCA                     ;                          ' 4
0606   06B5 77          >            LD  (HL), A             ; #6 (bit 20)               ' 7
0606   06B6 0F          >            RRCA                     ;                          ' 4
0606   06B7 77          >            LD  (HL), A             ; #7 (bit 21)               ' 7
0606   06B8 75          >            LD  (HL), L             ; #8 (bit 22 = 0)           ' 7
0606   06B9 75          >            LD  (HL), L             ; #9 (bit 23 = 0)           ' 7
0606   06BA 7B          >            LD      A, E                ; A = bit 8-15          ' 4
0606   06BB F6 80       >            OR      $80                 ; A = $80 | bit 8-14    ' 7
0606   06BD 67          >            LD      H, A                ;                       ' 4
0606   06BE AF          >            XOR     A                   ;                       ' 4
0606   06BF 6F          >            LD      L, A                ; L = $00               ' 4
0606   06C0 F9          >            LD      SP, HL              ; SP = sample src       ' 6
0606   06C1 2A 2C 01    >            LD      HL, (WRITEBUF)      ;                       ' 16    (182)
0607   06C4 DD 2E 15                LD      IXL, 21             ; prepare loop          ' 11    |
0608   06C7             
0609   06C7             ; $71-$AF
0610   06C7             loop_ch2
0611   06C7                         readAndMix12WhilePlay3      ;                       ' 640   |
0611   06C7 D9          >            EXX                     ;                           ' 4
0611   06C8 0A          >            LD      A, (BC)         ; read sample from buffer   ' 7
0611   06C9 82          >            ADD     D               ; unsign                    ' 4
0611   06CA 0C          >            INC     C               ; increment with looping    ' 4
0611   06CB 77          >            LD      (HL), A         ; play sample               ' 7
0611   06CC D9          >            EXX                     ;                           ' 4
0611   06CD D1          >            POP     DE              ; read 2 samples from ROM   ' 10+2
0611   06CE 4B          >            LD      C, E            ; first sample              ' 4     |
0611   06CF 0A          >            LD      A, (BC)         ; compute volume            ' 7     |
0611   06D0 86          >            ADD     (HL)            ; mix                       ' 7     | 24
0611   06D1 E2 D8 06    >            JP      PO, .ok         ; check overflow            ' 10    |
0611   06D4 3E 7F       >            LD      A, $7F          ; fix overflow              ' 7     |
0611   06D6 CE 00       >            ADC     $0              ; A = $7F/$80               ' 7     | +14
0611   06D8 77          >            LD      (HL), A         ; write sample in buffer    ' 7     | 11 (35)
0611   06D9 2C          >            INC     L               ; next                      ' 4     |
0611   06DA 4A          >            LD      C, D            ; second sample             ' 4     |
0611   06DB 0A          >            LD      A, (BC)         ; compute volume            ' 7     |
0611   06DC 86          >            ADD     (HL)            ; mix                       ' 7     | 24
0611   06DD E2 E4 06    >            JP      PO, .ok         ; check overflow            ' 10    |
0611   06E0 3E 7F       >            LD      A, $7F          ; fix overflow              ' 7     |
0611   06E2 CE 00       >            ADC     $0              ; A = $7F/$80               ' 7     | +14
0611   06E4 77          >            LD      (HL), A         ; write sample in buffer    ' 7     | 11 (35)
0611   06E5 2C          >            INC     L               ; next                      ' 4     |
0611   06E6 D1          >            POP     DE              ; read 2 samples from ROM   ' 10+2
0611   06E7 4B          >            LD      C, E            ; first sample              ' 4     |
0611   06E8 0A          >            LD      A, (BC)         ; compute volume            ' 7     |
0611   06E9 86          >            ADD     (HL)            ; mix                       ' 7     | 24
0611   06EA E2 F1 06    >            JP      PO, .ok         ; check overflow            ' 10    |
0611   06ED 3E 7F       >            LD      A, $7F          ; fix overflow              ' 7     |
0611   06EF CE 00       >            ADC     $0              ; A = $7F/$80               ' 7     | +14
0611   06F1 77          >            LD      (HL), A         ; write sample in buffer    ' 7     | 11 (35)
0611   06F2 2C          >            INC     L               ; next                      ' 4     |
0611   06F3 4A          >            LD      C, D            ; second sample             ' 4     |
0611   06F4 0A          >            LD      A, (BC)         ; compute volume            ' 7     |
0611   06F5 86          >            ADD     (HL)            ; mix                       ' 7     | 24
0611   06F6 E2 FD 06    >            JP      PO, .ok         ; check overflow            ' 10    |
0611   06F9 3E 7F       >            LD      A, $7F          ; fix overflow              ' 7     |
0611   06FB CE 00       >            ADC     $0              ; A = $7F/$80               ' 7     | +14
0611   06FD 77          >            LD      (HL), A         ; write sample in buffer    ' 7     | 11 (35)
0611   06FE 2C          >            INC     L               ; next                      ' 4     |
0611   06FF D1          >            POP     DE              ; read 2 samples from ROM   ' 10+2 (222)
0611   0700 D9          >            EXX                     ;                           ' 4
0611   0701 0A          >            LD      A, (BC)         ; read sample from buffer   ' 7
0611   0702 82          >            ADD     D               ; unsign                    ' 4
0611   0703 0C          >            INC     C               ; increment with looping    ' 4
0611   0704 77          >            LD      (HL), A         ; play sample               ' 7
0611   0705 D9          >            EXX                     ;                           ' 4
0611   0706 4B          >            LD      C, E            ; first sample              ' 4     |
0611   0707 0A          >            LD      A, (BC)         ; compute volume            ' 7     |
0611   0708 86          >            ADD     (HL)            ; mix                       ' 7     | 24
0611   0709 E2 10 07    >            JP      PO, .ok         ; check overflow            ' 10    |
0611   070C 3E 7F       >            LD      A, $7F          ; fix overflow              ' 7     |
0611   070E CE 00       >            ADC     $0              ; A = $7F/$80               ' 7     | +14
0611   0710 77          >            LD      (HL), A         ; write sample in buffer    ' 7     | 11 (35)
0611   0711 2C          >            INC     L               ; next                      ' 4     |
0611   0712 4A          >            LD      C, D            ; second sample             ' 4     |
0611   0713 0A          >            LD      A, (BC)         ; compute volume            ' 7     |
0611   0714 86          >            ADD     (HL)            ; mix                       ' 7     | 24
0611   0715 E2 1C 07    >            JP      PO, .ok         ; check overflow            ' 10    |
0611   0718 3E 7F       >            LD      A, $7F          ; fix overflow              ' 7     |
0611   071A CE 00       >            ADC     $0              ; A = $7F/$80               ' 7     | +14
0611   071C 77          >            LD      (HL), A         ; write sample in buffer    ' 7     | 11 (35)
0611   071D 2C          >            INC     L               ; next                      ' 4     |
0611   071E D1          >            POP     DE              ; read 2 samples from ROM   ' 10+2
0611   071F 4B          >            LD      C, E            ; first sample              ' 4     |
0611   0720 0A          >            LD      A, (BC)         ; compute volume            ' 7     |
0611   0721 86          >            ADD     (HL)            ; mix                       ' 7     | 24
0611   0722 E2 29 07    >            JP      PO, .ok         ; check overflow            ' 10    |
0611   0725 3E 7F       >            LD      A, $7F          ; fix overflow              ' 7     |
0611   0727 CE 00       >            ADC     $0              ; A = $7F/$80               ' 7     | +14
0611   0729 77          >            LD      (HL), A         ; write sample in buffer    ' 7     | 11 (35)
0611   072A 2C          >            INC     L               ; next                      ' 4     |
0611   072B 4A          >            LD      C, D            ; second sample             ' 4     |
0611   072C 0A          >            LD      A, (BC)         ; compute volume            ' 7     |
0611   072D 86          >            ADD     (HL)            ; mix                       ' 7     | 24
0611   072E E2 35 07    >            JP      PO, .ok         ; check overflow            ' 10    |
0611   0731 3E 7F       >            LD      A, $7F          ; fix overflow              ' 7     |
0611   0733 CE 00       >            ADC     $0              ; A = $7F/$80               ' 7     | +14
0611   0735 77          >            LD      (HL), A         ; write sample in buffer    ' 7     | 11 (35)
0611   0736 2C          >            INC     L               ; next                      ' 4     |
0611   0737 D1          >            POP     DE              ; read 2 samples from ROM   ' 10+2  |
0611   0738 4B          >            LD      C, E            ; first sample              ' 4     | 26 (446)
0611   0739 C3 3C 07    >            JP      .go
0611   073C D9          >            EXX                     ;                           ' 4
0611   073D 0A          >            LD      A, (BC)         ; read sample from buffer   ' 7
0611   073E 82          >            ADD     D               ; unsign                    ' 4
0611   073F 0C          >            INC     C               ; increment with looping    ' 4
0611   0740 77          >            LD      (HL), A         ; play sample               ' 7
0611   0741 D9          >            EXX                     ;                           ' 4
0611   0742 0A          >            LD      A, (BC)         ; compute volume            ' 7     |
0611   0743 86          >            ADD     (HL)            ; mix                       ' 7     | 24
0611   0744 E2 4B 07    >            JP      PO, .ok         ; check overflow            ' 10    |
0611   0747 3E 7F       >            LD      A, $7F          ; fix overflow              ' 7     |
0611   0749 CE 00       >            ADC     $0              ; A = $7F/$80               ' 7     | +14
0611   074B 77          >            LD      (HL), A         ; write sample in buffer    ' 7     | 11 (35)
0611   074C 2C          >            INC     L               ; next                      ' 4     |
0611   074D 4A          >            LD      C, D            ; second sample             ' 4     | 74 (550)
0611   074E 0A          >            LD      A, (BC)         ; compute volume            ' 7     |
0611   074F 86          >            ADD     (HL)            ; mix                       ' 7     | 24
0611   0750 E2 57 07    >            JP      PO, .ok         ; check overflow            ' 10    |
0611   0753 3E 7F       >            LD      A, $7F          ; fix overflow              ' 7     |
0611   0755 CE 00       >            ADC     $0              ; A = $7F/$80               ' 7     | +14
0611   0757 77          >            LD      (HL), A         ; write sample in buffer    ' 7     | 11 (35)
0611   0758 2C          >            INC     L               ; next                      ' 4     |
0611   0759 D1          >            POP     DE              ; read 2 samples from ROM   ' 10+2
0611   075A 4B          >            LD      C, E            ; first sample              ' 4     |
0611   075B 0A          >            LD      A, (BC)         ; compute volume            ' 7     |
0611   075C 86          >            ADD     (HL)            ; mix                       ' 7     | 24
0611   075D E2 64 07    >            JP      PO, .ok         ; check overflow            ' 10    |
0611   0760 3E 7F       >            LD      A, $7F          ; fix overflow              ' 7     |
0611   0762 CE 00       >            ADC     $0              ; A = $7F/$80               ' 7     | +14
0611   0764 77          >            LD      (HL), A         ; write sample in buffer    ' 7     | 11 (35)
0611   0765 2C          >            INC     L               ; next                      ' 4     |
0611   0766 4A          >            LD      C, D            ; second sample             ' 4     |
0611   0767 0A          >            LD      A, (BC)         ; compute volume            ' 7     |
0611   0768 86          >            ADD     (HL)            ; mix                       ' 7     | 24
0611   0769 E2 70 07    >            JP      PO, .ok         ; check overflow            ' 10    |
0611   076C 3E 7F       >            LD      A, $7F          ; fix overflow              ' 7     |
0611   076E CE 00       >            ADC     $0              ; A = $7F/$80               ' 7     | +14
0611   0770 77          >            LD      (HL), A         ; write sample in buffer    ' 7     | 11 (35)
0611   0771 2C          >            INC     L               ; next                      ' 4     |
0612   0772                         wait11                      ;                       ' 11    | 3*223
0612   0772 F6 00       >            OR      $0
0612   0774 00          >            NOP
0613   0775 DD 2D                   DEC     IXL                 ; 12 samples per loop   ' 8     |
0614   0777 C2 C7 06                JP      NZ, loop_ch2        ;                       ' 10    |
0615   077A             
0616   077A             ; $B0
0617   077A                         sampleOutput                ;                       ' 30    |
0617   077A D9          >            EXX                     ;                           ' 4
0617   077B 0A          >            LD      A, (BC)         ; read sample from buffer   ' 7
0617   077C 82          >            ADD     D               ; unsign                    ' 4
0617   077D 0C          >            INC     C               ; increment with looping    ' 4
0617   077E 77          >            LD      (HL), A         ; play sample               ' 7
0617   077F D9          >            EXX                     ;                           ' 4
0618   0780                         readAndMix2                 ;                       ' 90    | 223
0618   0780 D1          >            POP     DE              ; read 2 samples from ROM   ' 10+2
0618   0781 4B          >            LD      C, E            ; first sample              ' 4     |
0618   0782 0A          >            LD      A, (BC)         ; compute volume            ' 7     |
0618   0783 86          >            ADD     (HL)            ; mix                       ' 7     | 24
0618   0784 E2 8B 07    >            JP      PO, .ok         ; check overflow            ' 10    |
0618   0787 3E 7F       >            LD      A, $7F          ; fix overflow              ' 7     |
0618   0789 CE 00       >            ADC     $0              ; A = $7F/$80               ' 7     | +14
0618   078B 77          >            LD      (HL), A         ; write sample in buffer    ' 7     | 11 (35)
0618   078C 2C          >            INC     L               ; next                      ' 4     |
0618   078D 4A          >            LD      C, D            ; second sample             ' 4     |
0618   078E 0A          >            LD      A, (BC)         ; compute volume            ' 7     |
0618   078F 86          >            ADD     (HL)            ; mix                       ' 7     | 24
0618   0790 E2 97 07    >            JP      PO, .ok         ; check overflow            ' 10    |
0618   0793 3E 7F       >            LD      A, $7F          ; fix overflow              ' 7     |
0618   0795 CE 00       >            ADC     $0              ; A = $7F/$80               ' 7     | +14
0618   0797 77          >            LD      (HL), A         ; write sample in buffer    ' 7     | 11 (35)
0618   0798 2C          >            INC     L               ; next                      ' 4     |
0619   0799                         readAndMix2                 ; last 4 samples        ' 90    |
0619   0799 D1          >            POP     DE              ; read 2 samples from ROM   ' 10+2
0619   079A 4B          >            LD      C, E            ; first sample              ' 4     |
0619   079B 0A          >            LD      A, (BC)         ; compute volume            ' 7     |
0619   079C 86          >            ADD     (HL)            ; mix                       ' 7     | 24
0619   079D E2 A4 07    >            JP      PO, .ok         ; check overflow            ' 10    |
0619   07A0 3E 7F       >            LD      A, $7F          ; fix overflow              ' 7     |
0619   07A2 CE 00       >            ADC     $0              ; A = $7F/$80               ' 7     | +14
0619   07A4 77          >            LD      (HL), A         ; write sample in buffer    ' 7     | 11 (35)
0619   07A5 2C          >            INC     L               ; next                      ' 4     |
0619   07A6 4A          >            LD      C, D            ; second sample             ' 4     |
0619   07A7 0A          >            LD      A, (BC)         ; compute volume            ' 7     |
0619   07A8 86          >            ADD     (HL)            ; mix                       ' 7     | 24
0619   07A9 E2 B0 07    >            JP      PO, .ok         ; check overflow            ' 10    |
0619   07AC 3E 7F       >            LD      A, $7F          ; fix overflow              ' 7     |
0619   07AE CE 00       >            ADC     $0              ; A = $7F/$80               ' 7     | +14
0619   07B0 77          >            LD      (HL), A         ; write sample in buffer    ' 7     | 11 (35)
0619   07B1 2C          >            INC     L               ; next                      ' 4     |
0620   07B2                         wait13                      ;                       ' 13    |
0620   07B2 ED 4F       >            LD      R, A
0620   07B4 00          >            NOP
0621   07B5             
0622   07B5             ; $B1
0623   07B5                         sampleOutput                ;                       ' 30    |
0623   07B5 D9          >            EXX                     ;                           ' 4
0623   07B6 0A          >            LD      A, (BC)         ; read sample from buffer   ' 7
0623   07B7 82          >            ADD     D               ; unsign                    ' 4
0623   07B8 0C          >            INC     C               ; increment with looping    ' 4
0623   07B9 77          >            LD      (HL), A         ; play sample               ' 7
0623   07BA D9          >            EXX                     ;                           ' 4
0624   07BB                         updateChannelData 2         ;                       ' 76    | 223
0624   07BB 2A 1C 01    >            LD      HL, (IWAVADR+(ch*4))    ; increment address ' 16
0624   07BE 23          >            INC     HL                      ;                   ' 6
0624   07BF 22 1C 01    >            LD      (IWAVADR+(ch*4)), HL    ;                   ' 16    (38)
0624   07C2 2A 1E 01    >            LD      HL, (IWAVLEN+(ch*4))    ; decrement lenght  ' 16
0624   07C5 2B          >            DEC     HL                      ;                   ' 6
0624   07C6 22 1E 01    >            LD      (IWAVLEN+(ch*4)), HL    ;                   ' 16    (76)
0625   07C9                         wait117                     ;                       ' 117   |
0625   07C9 3E 06       >            LD      A, w            ; 7-2
0625   07CB 3D          >            DEC     A               ; 4
0625   07CC 20 FD       >            JR      NZ, .loop       ; 12
0625   07CE 18 00       >            JR      .go
0625   07D0 F6 00       >            OR      $0
0626   07D2             
0627   07D2             ; $B2
0628   07D2                         sampleOutput                ;                       ' 30    |
0628   07D2 D9          >            EXX                     ;                           ' 4
0628   07D3 0A          >            LD      A, (BC)         ; read sample from buffer   ' 7
0628   07D4 82          >            ADD     D               ; unsign                    ' 4
0628   07D5 0C          >            INC     C               ; increment with looping    ' 4
0628   07D6 77          >            LD      (HL), A         ; play sample               ' 7
0628   07D7 D9          >            EXX                     ;                           ' 4
0629   07D8                         checkChannelEnd 2           ;                       ' 180   | 223
0629   07D8 2A 1E 01    >            LD      HL, (IWAVLEN+(ch*4))    ; get sample lenght ' 16
0629   07DB 7C          >            LD      A, H                    ;                   ' 4
0629   07DC B5          >            OR      L                       ;                   ' 4
0629   07DD CA ED 07    >            JP      Z, .done                ; sample done ?     ' 10    (34)
0629   07E0 3E 07       >            LD      A, w            ; 7-2
0629   07E2 3D          >            DEC     A               ; 4
0629   07E3 20 FD       >            JR      NZ, .loop       ; 12
0629   07E5 ED 4F       >            LD      R, A
0629   07E7 ED 4F       >            LD      R, A
0629   07E9 00          >            NOP
0629   07EA C3 23 08    >            JP      .end                    ;                   ' 10    (180)
0629   07ED 21 03 01    >            LD      HL, STATUS+1            ;                   ' 10
0629   07F0 CB 56       >            BIT     STATPLAY_SFT+ch, (HL)   ; get status        ' 12
0629   07F2 CA 0D 08    >            JP      Z, .stop            ;                       ' 10    (66)
0629   07F5 2A 0C 01    >            LD      HL, (WAVADR+(ch*4))     ;                   ' 16
0629   07F8 22 1C 01    >            LD      (IWAVADR+(ch*4)), HL    ;                   ' 16
0629   07FB 2A 0E 01    >            LD      HL, (WAVLEN+(ch*4))     ;                   ' 16
0629   07FE 22 1E 01    >            LD      (IWAVLEN+(ch*4)), HL    ;                   ' 16
0629   0801 ED 4F       >            LD      R, A
0629   0803 ED 4F       >            LD      R, A
0629   0805 ED 4F       >            LD      R, A
0629   0807 ED 4F       >            LD      R, A
0629   0809 00          >            NOP
0629   080A C3 23 08    >            JP      .end                ;                       ' 10    (180)
0629   080D 2A 28 01    >            LD      HL, (NULLWAVADR)        ;                   ' 16
0629   0810 22 1C 01    >            LD      (IWAVADR+(ch*4)), HL    ;                   ' 16
0629   0813 2A 2A 01    >            LD      HL, (NULLWAVLEN)        ;                   ' 16
0629   0816 22 1E 01    >            LD      (IWAVLEN+(ch*4)), HL    ;                   ' 16
0629   0819 21 02 01    >            LD      HL, STATUS              ;                   ' 10
0629   081C CB 96       >            RES     STATPLAY_SFT+ch, (HL)   ; clear status      ' 15
0629   081E 21 03 01    >            LD      HL, STATUS+1            ;                   ' 10
0629   0821 CB 96       >            RES     STATPLAY_SFT+ch, (HL)   ; clear status      ' 15
0630   0823                         wait13                      ;                       ' 13    |
0630   0823 ED 4F       >            LD      R, A
0630   0825 00          >            NOP
0631   0826             
0632   0826             ; channel 3
0633   0826             ; ---------
0634   0826             
0635   0826             ; $B3
0636   0826                         sampleOutput                ;                       ' 30    |
0636   0826 D9          >            EXX                     ;                           ' 4
0636   0827 0A          >            LD      A, (BC)         ; read sample from buffer   ' 7
0636   0828 82          >            ADD     D               ; unsign                    ' 4
0636   0829 0C          >            INC     C               ; increment with looping    ' 4
0636   082A 77          >            LD      (HL), A         ; play sample               ' 7
0636   082B D9          >            EXX                     ;                           ' 4
0637   082C                         handlePlayCommand 3         ;                       ' 146   | 223
0637   082C 21 00 01    >            LD      HL, COMMAND             ;                   ' 10
0637   082F CB 5E       >            BIT     COMPLAY_SFT+ch, (HL)    ; play command ?    ' 12
0637   0831 C2 41 08    >            JP      NZ, .do_command     ;                       ' 10    (32)
0637   0834 3E 05       >            LD      A, w            ; 7-2
0637   0836 3D          >            DEC     A               ; 4
0637   0837 20 FD       >            JR      NZ, .loop       ; 12
0637   0839 ED 4F       >            LD      R, A
0637   083B ED 4F       >            LD      R, A
0637   083D 00          >            NOP
0637   083E C3 57 08    >            JP      .end                ;                       ' 10    (146)
0637   0841 21 00 01    >            LD      HL, COMMAND             ;                   ' 10
0637   0844 CB 9E       >            RES     COMPLAY_SFT+ch, (HL)    ; clear command     ' 15
0637   0846 2A 10 01    >            LD      HL, (WAVADR+(ch*4))     ;                   ' 16
0637   0849 22 20 01    >            LD      (IWAVADR+(ch*4)), HL    ;                   ' 16
0637   084C 2A 12 01    >            LD      HL, (WAVLEN+(ch*4))     ;                   ' 16
0637   084F 22 22 01    >            LD      (IWAVLEN+(ch*4)), HL    ;                   ' 16
0637   0852 21 02 01    >            LD      HL, STATUS              ;                   ' 10
0637   0855 CB DE       >            SET     STATPLAY_SFT+ch, (HL)   ; set status        ' 15
0638   0857                         prepareVolume 3             ;                       ' 28    |
0638   0857 21 27 01    >            LD      HL, WAVVOL+ch       ; point to volume info  ' 10
0638   085A 7E          >            LD      A, (HL)             ; A = volume            ' 7
0638   085B F6 10       >            OR      $10                 ; ajusted for LUT       ' 7
0638   085D 47          >            LD      B, A                ; save to B             ' 4
0639   085E                         wait19                      ;                       ' 19    |
0639   085E 18 00       >            JR      .go
0639   0860 F6 00       >            OR      $0
0640   0862             
0641   0862             ; $B4
0642   0862                         sampleOutput                ;                       ' 30    |
0642   0862 D9          >            EXX                     ;                           ' 4
0642   0863 0A          >            LD      A, (BC)         ; read sample from buffer   ' 7
0642   0864 82          >            ADD     D               ; unsign                    ' 4
0642   0865 0C          >            INC     C               ; increment with looping    ' 4
0642   0866 77          >            LD      (HL), A         ; play sample               ' 7
0642   0867 D9          >            EXX                     ;                           ' 4
0643   0868                         prepareChannel 3            ;                       ' 182   | 223
0643   0868 21 20 01    >            LD      HL, IWAVADR+(ch*4)  ; point to sample adr   ' 10
0643   086B 7E          >            LD      A, (HL)             ; A = bit 8-15          ' 7
0643   086C 5F          >            LD      E, A                ; save to E             ' 4
0643   086D 2C          >            INC     L                   ;                       ' 4
0643   086E 17          >            RLA                         ; C flag = bit 15       ' 4
0643   086F 7E          >            LD      A, (HL)             ; A = bit 16-23         ' 7
0643   0870 17          >            RLA                         ; A = bit 15-22         ' 4     (40)
0643   0871 21 00 60    >            LD  HL, BANKREG         ; HL = BANKREG              ' 10
0643   0874 77          >            LD  (HL), A             ; #1 (bit 15)               ' 7
0643   0875 0F          >            RRCA                     ;                          ' 4
0643   0876 77          >            LD  (HL), A             ; #2 (bit 16)               ' 7
0643   0877 0F          >            RRCA                     ;                          ' 4
0643   0878 77          >            LD  (HL), A             ; #3 (bit 17)               ' 7
0643   0879 0F          >            RRCA                     ;                          ' 4
0643   087A 77          >            LD  (HL), A             ; #4 (bit 18)               ' 7
0643   087B 0F          >            RRCA                     ;                          ' 4
0643   087C 77          >            LD  (HL), A             ; #5 (bit 19)               ' 7
0643   087D 0F          >            RRCA                     ;                          ' 4
0643   087E 77          >            LD  (HL), A             ; #6 (bit 20)               ' 7
0643   087F 0F          >            RRCA                     ;                          ' 4
0643   0880 77          >            LD  (HL), A             ; #7 (bit 21)               ' 7
0643   0881 75          >            LD  (HL), L             ; #8 (bit 22 = 0)           ' 7
0643   0882 75          >            LD  (HL), L             ; #9 (bit 23 = 0)           ' 7
0643   0883 7B          >            LD      A, E                ; A = bit 8-15          ' 4
0643   0884 F6 80       >            OR      $80                 ; A = $80 | bit 8-14    ' 7
0643   0886 67          >            LD      H, A                ;                       ' 4
0643   0887 AF          >            XOR     A                   ;                       ' 4
0643   0888 6F          >            LD      L, A                ; L = $00               ' 4
0643   0889 F9          >            LD      SP, HL              ; SP = sample src       ' 6
0643   088A 2A 2C 01    >            LD      HL, (WRITEBUF)      ;                       ' 16    (182)
0644   088D DD 2E 15                LD      IXL, 21             ; prepare loop          ' 11    |
0645   0890             
0646   0890             ; $B5-$F3
0647   0890             loop_ch3
0648   0890                         readAndMix12WhilePlay3      ;                       ' 640   |
0648   0890 D9          >            EXX                     ;                           ' 4
0648   0891 0A          >            LD      A, (BC)         ; read sample from buffer   ' 7
0648   0892 82          >            ADD     D               ; unsign                    ' 4
0648   0893 0C          >            INC     C               ; increment with looping    ' 4
0648   0894 77          >            LD      (HL), A         ; play sample               ' 7
0648   0895 D9          >            EXX                     ;                           ' 4
0648   0896 D1          >            POP     DE              ; read 2 samples from ROM   ' 10+2
0648   0897 4B          >            LD      C, E            ; first sample              ' 4     |
0648   0898 0A          >            LD      A, (BC)         ; compute volume            ' 7     |
0648   0899 86          >            ADD     (HL)            ; mix                       ' 7     | 24
0648   089A E2 A1 08    >            JP      PO, .ok         ; check overflow            ' 10    |
0648   089D 3E 7F       >            LD      A, $7F          ; fix overflow              ' 7     |
0648   089F CE 00       >            ADC     $0              ; A = $7F/$80               ' 7     | +14
0648   08A1 77          >            LD      (HL), A         ; write sample in buffer    ' 7     | 11 (35)
0648   08A2 2C          >            INC     L               ; next                      ' 4     |
0648   08A3 4A          >            LD      C, D            ; second sample             ' 4     |
0648   08A4 0A          >            LD      A, (BC)         ; compute volume            ' 7     |
0648   08A5 86          >            ADD     (HL)            ; mix                       ' 7     | 24
0648   08A6 E2 AD 08    >            JP      PO, .ok         ; check overflow            ' 10    |
0648   08A9 3E 7F       >            LD      A, $7F          ; fix overflow              ' 7     |
0648   08AB CE 00       >            ADC     $0              ; A = $7F/$80               ' 7     | +14
0648   08AD 77          >            LD      (HL), A         ; write sample in buffer    ' 7     | 11 (35)
0648   08AE 2C          >            INC     L               ; next                      ' 4     |
0648   08AF D1          >            POP     DE              ; read 2 samples from ROM   ' 10+2
0648   08B0 4B          >            LD      C, E            ; first sample              ' 4     |
0648   08B1 0A          >            LD      A, (BC)         ; compute volume            ' 7     |
0648   08B2 86          >            ADD     (HL)            ; mix                       ' 7     | 24
0648   08B3 E2 BA 08    >            JP      PO, .ok         ; check overflow            ' 10    |
0648   08B6 3E 7F       >            LD      A, $7F          ; fix overflow              ' 7     |
0648   08B8 CE 00       >            ADC     $0              ; A = $7F/$80               ' 7     | +14
0648   08BA 77          >            LD      (HL), A         ; write sample in buffer    ' 7     | 11 (35)
0648   08BB 2C          >            INC     L               ; next                      ' 4     |
0648   08BC 4A          >            LD      C, D            ; second sample             ' 4     |
0648   08BD 0A          >            LD      A, (BC)         ; compute volume            ' 7     |
0648   08BE 86          >            ADD     (HL)            ; mix                       ' 7     | 24
0648   08BF E2 C6 08    >            JP      PO, .ok         ; check overflow            ' 10    |
0648   08C2 3E 7F       >            LD      A, $7F          ; fix overflow              ' 7     |
0648   08C4 CE 00       >            ADC     $0              ; A = $7F/$80               ' 7     | +14
0648   08C6 77          >            LD      (HL), A         ; write sample in buffer    ' 7     | 11 (35)
0648   08C7 2C          >            INC     L               ; next                      ' 4     |
0648   08C8 D1          >            POP     DE              ; read 2 samples from ROM   ' 10+2 (222)
0648   08C9 D9          >            EXX                     ;                           ' 4
0648   08CA 0A          >            LD      A, (BC)         ; read sample from buffer   ' 7
0648   08CB 82          >            ADD     D               ; unsign                    ' 4
0648   08CC 0C          >            INC     C               ; increment with looping    ' 4
0648   08CD 77          >            LD      (HL), A         ; play sample               ' 7
0648   08CE D9          >            EXX                     ;                           ' 4
0648   08CF 4B          >            LD      C, E            ; first sample              ' 4     |
0648   08D0 0A          >            LD      A, (BC)         ; compute volume            ' 7     |
0648   08D1 86          >            ADD     (HL)            ; mix                       ' 7     | 24
0648   08D2 E2 D9 08    >            JP      PO, .ok         ; check overflow            ' 10    |
0648   08D5 3E 7F       >            LD      A, $7F          ; fix overflow              ' 7     |
0648   08D7 CE 00       >            ADC     $0              ; A = $7F/$80               ' 7     | +14
0648   08D9 77          >            LD      (HL), A         ; write sample in buffer    ' 7     | 11 (35)
0648   08DA 2C          >            INC     L               ; next                      ' 4     |
0648   08DB 4A          >            LD      C, D            ; second sample             ' 4     |
0648   08DC 0A          >            LD      A, (BC)         ; compute volume            ' 7     |
0648   08DD 86          >            ADD     (HL)            ; mix                       ' 7     | 24
0648   08DE E2 E5 08    >            JP      PO, .ok         ; check overflow            ' 10    |
0648   08E1 3E 7F       >            LD      A, $7F          ; fix overflow              ' 7     |
0648   08E3 CE 00       >            ADC     $0              ; A = $7F/$80               ' 7     | +14
0648   08E5 77          >            LD      (HL), A         ; write sample in buffer    ' 7     | 11 (35)
0648   08E6 2C          >            INC     L               ; next                      ' 4     |
0648   08E7 D1          >            POP     DE              ; read 2 samples from ROM   ' 10+2
0648   08E8 4B          >            LD      C, E            ; first sample              ' 4     |
0648   08E9 0A          >            LD      A, (BC)         ; compute volume            ' 7     |
0648   08EA 86          >            ADD     (HL)            ; mix                       ' 7     | 24
0648   08EB E2 F2 08    >            JP      PO, .ok         ; check overflow            ' 10    |
0648   08EE 3E 7F       >            LD      A, $7F          ; fix overflow              ' 7     |
0648   08F0 CE 00       >            ADC     $0              ; A = $7F/$80               ' 7     | +14
0648   08F2 77          >            LD      (HL), A         ; write sample in buffer    ' 7     | 11 (35)
0648   08F3 2C          >            INC     L               ; next                      ' 4     |
0648   08F4 4A          >            LD      C, D            ; second sample             ' 4     |
0648   08F5 0A          >            LD      A, (BC)         ; compute volume            ' 7     |
0648   08F6 86          >            ADD     (HL)            ; mix                       ' 7     | 24
0648   08F7 E2 FE 08    >            JP      PO, .ok         ; check overflow            ' 10    |
0648   08FA 3E 7F       >            LD      A, $7F          ; fix overflow              ' 7     |
0648   08FC CE 00       >            ADC     $0              ; A = $7F/$80               ' 7     | +14
0648   08FE 77          >            LD      (HL), A         ; write sample in buffer    ' 7     | 11 (35)
0648   08FF 2C          >            INC     L               ; next                      ' 4     |
0648   0900 D1          >            POP     DE              ; read 2 samples from ROM   ' 10+2  |
0648   0901 4B          >            LD      C, E            ; first sample              ' 4     | 26 (446)
0648   0902 C3 05 09    >            JP      .go
0648   0905 D9          >            EXX                     ;                           ' 4
0648   0906 0A          >            LD      A, (BC)         ; read sample from buffer   ' 7
0648   0907 82          >            ADD     D               ; unsign                    ' 4
0648   0908 0C          >            INC     C               ; increment with looping    ' 4
0648   0909 77          >            LD      (HL), A         ; play sample               ' 7
0648   090A D9          >            EXX                     ;                           ' 4
0648   090B 0A          >            LD      A, (BC)         ; compute volume            ' 7     |
0648   090C 86          >            ADD     (HL)            ; mix                       ' 7     | 24
0648   090D E2 14 09    >            JP      PO, .ok         ; check overflow            ' 10    |
0648   0910 3E 7F       >            LD      A, $7F          ; fix overflow              ' 7     |
0648   0912 CE 00       >            ADC     $0              ; A = $7F/$80               ' 7     | +14
0648   0914 77          >            LD      (HL), A         ; write sample in buffer    ' 7     | 11 (35)
0648   0915 2C          >            INC     L               ; next                      ' 4     |
0648   0916 4A          >            LD      C, D            ; second sample             ' 4     | 74 (550)
0648   0917 0A          >            LD      A, (BC)         ; compute volume            ' 7     |
0648   0918 86          >            ADD     (HL)            ; mix                       ' 7     | 24
0648   0919 E2 20 09    >            JP      PO, .ok         ; check overflow            ' 10    |
0648   091C 3E 7F       >            LD      A, $7F          ; fix overflow              ' 7     |
0648   091E CE 00       >            ADC     $0              ; A = $7F/$80               ' 7     | +14
0648   0920 77          >            LD      (HL), A         ; write sample in buffer    ' 7     | 11 (35)
0648   0921 2C          >            INC     L               ; next                      ' 4     |
0648   0922 D1          >            POP     DE              ; read 2 samples from ROM   ' 10+2
0648   0923 4B          >            LD      C, E            ; first sample              ' 4     |
0648   0924 0A          >            LD      A, (BC)         ; compute volume            ' 7     |
0648   0925 86          >            ADD     (HL)            ; mix                       ' 7     | 24
0648   0926 E2 2D 09    >            JP      PO, .ok         ; check overflow            ' 10    |
0648   0929 3E 7F       >            LD      A, $7F          ; fix overflow              ' 7     |
0648   092B CE 00       >            ADC     $0              ; A = $7F/$80               ' 7     | +14
0648   092D 77          >            LD      (HL), A         ; write sample in buffer    ' 7     | 11 (35)
0648   092E 2C          >            INC     L               ; next                      ' 4     |
0648   092F 4A          >            LD      C, D            ; second sample             ' 4     |
0648   0930 0A          >            LD      A, (BC)         ; compute volume            ' 7     |
0648   0931 86          >            ADD     (HL)            ; mix                       ' 7     | 24
0648   0932 E2 39 09    >            JP      PO, .ok         ; check overflow            ' 10    |
0648   0935 3E 7F       >            LD      A, $7F          ; fix overflow              ' 7     |
0648   0937 CE 00       >            ADC     $0              ; A = $7F/$80               ' 7     | +14
0648   0939 77          >            LD      (HL), A         ; write sample in buffer    ' 7     | 11 (35)
0648   093A 2C          >            INC     L               ; next                      ' 4     |
0649   093B                         wait11                      ;                       ' 11    | 3*223
0649   093B F6 00       >            OR      $0
0649   093D 00          >            NOP
0650   093E DD 2D                   DEC     IXL                 ; 12 samples per loop   ' 8     |
0651   0940 C2 90 08                JP      NZ, loop_ch3        ;                       ' 10    |
0652   0943             
0653   0943             ; $F4
0654   0943                         sampleOutput                ;                       ' 30    |
0654   0943 D9          >            EXX                     ;                           ' 4
0654   0944 0A          >            LD      A, (BC)         ; read sample from buffer   ' 7
0654   0945 82          >            ADD     D               ; unsign                    ' 4
0654   0946 0C          >            INC     C               ; increment with looping    ' 4
0654   0947 77          >            LD      (HL), A         ; play sample               ' 7
0654   0948 D9          >            EXX                     ;                           ' 4
0655   0949                         readAndMix2                 ;                       ' 90    | 223
0655   0949 D1          >            POP     DE              ; read 2 samples from ROM   ' 10+2
0655   094A 4B          >            LD      C, E            ; first sample              ' 4     |
0655   094B 0A          >            LD      A, (BC)         ; compute volume            ' 7     |
0655   094C 86          >            ADD     (HL)            ; mix                       ' 7     | 24
0655   094D E2 54 09    >            JP      PO, .ok         ; check overflow            ' 10    |
0655   0950 3E 7F       >            LD      A, $7F          ; fix overflow              ' 7     |
0655   0952 CE 00       >            ADC     $0              ; A = $7F/$80               ' 7     | +14
0655   0954 77          >            LD      (HL), A         ; write sample in buffer    ' 7     | 11 (35)
0655   0955 2C          >            INC     L               ; next                      ' 4     |
0655   0956 4A          >            LD      C, D            ; second sample             ' 4     |
0655   0957 0A          >            LD      A, (BC)         ; compute volume            ' 7     |
0655   0958 86          >            ADD     (HL)            ; mix                       ' 7     | 24
0655   0959 E2 60 09    >            JP      PO, .ok         ; check overflow            ' 10    |
0655   095C 3E 7F       >            LD      A, $7F          ; fix overflow              ' 7     |
0655   095E CE 00       >            ADC     $0              ; A = $7F/$80               ' 7     | +14
0655   0960 77          >            LD      (HL), A         ; write sample in buffer    ' 7     | 11 (35)
0655   0961 2C          >            INC     L               ; next                      ' 4     |
0656   0962                         readAndMix2                 ; last 4 samples        ' 90    |
0656   0962 D1          >            POP     DE              ; read 2 samples from ROM   ' 10+2
0656   0963 4B          >            LD      C, E            ; first sample              ' 4     |
0656   0964 0A          >            LD      A, (BC)         ; compute volume            ' 7     |
0656   0965 86          >            ADD     (HL)            ; mix                       ' 7     | 24
0656   0966 E2 6D 09    >            JP      PO, .ok         ; check overflow            ' 10    |
0656   0969 3E 7F       >            LD      A, $7F          ; fix overflow              ' 7     |
0656   096B CE 00       >            ADC     $0              ; A = $7F/$80               ' 7     | +14
0656   096D 77          >            LD      (HL), A         ; write sample in buffer    ' 7     | 11 (35)
0656   096E 2C          >            INC     L               ; next                      ' 4     |
0656   096F 4A          >            LD      C, D            ; second sample             ' 4     |
0656   0970 0A          >            LD      A, (BC)         ; compute volume            ' 7     |
0656   0971 86          >            ADD     (HL)            ; mix                       ' 7     | 24
0656   0972 E2 79 09    >            JP      PO, .ok         ; check overflow            ' 10    |
0656   0975 3E 7F       >            LD      A, $7F          ; fix overflow              ' 7     |
0656   0977 CE 00       >            ADC     $0              ; A = $7F/$80               ' 7     | +14
0656   0979 77          >            LD      (HL), A         ; write sample in buffer    ' 7     | 11 (35)
0656   097A 2C          >            INC     L               ; next                      ' 4     |
0657   097B                         wait13                      ;                       ' 13    |
0657   097B ED 4F       >            LD      R, A
0657   097D 00          >            NOP
0658   097E             
0659   097E             ; $F5
0660   097E                         sampleOutput                ;                       ' 30    |
0660   097E D9          >            EXX                     ;                           ' 4
0660   097F 0A          >            LD      A, (BC)         ; read sample from buffer   ' 7
0660   0980 82          >            ADD     D               ; unsign                    ' 4
0660   0981 0C          >            INC     C               ; increment with looping    ' 4
0660   0982 77          >            LD      (HL), A         ; play sample               ' 7
0660   0983 D9          >            EXX                     ;                           ' 4
0661   0984                         updateChannelData 3         ;                       ' 76    | 223
0661   0984 2A 20 01    >            LD      HL, (IWAVADR+(ch*4))    ; increment address ' 16
0661   0987 23          >            INC     HL                      ;                   ' 6
0661   0988 22 20 01    >            LD      (IWAVADR+(ch*4)), HL    ;                   ' 16    (38)
0661   098B 2A 22 01    >            LD      HL, (IWAVLEN+(ch*4))    ; decrement lenght  ' 16
0661   098E 2B          >            DEC     HL                      ;                   ' 6
0661   098F 22 22 01    >            LD      (IWAVLEN+(ch*4)), HL    ;                   ' 16    (76)
0662   0992                         wait117                     ;                       ' 117   |
0662   0992 3E 06       >            LD      A, w            ; 7-2
0662   0994 3D          >            DEC     A               ; 4
0662   0995 20 FD       >            JR      NZ, .loop       ; 12
0662   0997 18 00       >            JR      .go
0662   0999 F6 00       >            OR      $0
0663   099B             
0664   099B             ; $F6
0665   099B                         sampleOutput                ;                       ' 30    |
0665   099B D9          >            EXX                     ;                           ' 4
0665   099C 0A          >            LD      A, (BC)         ; read sample from buffer   ' 7
0665   099D 82          >            ADD     D               ; unsign                    ' 4
0665   099E 0C          >            INC     C               ; increment with looping    ' 4
0665   099F 77          >            LD      (HL), A         ; play sample               ' 7
0665   09A0 D9          >            EXX                     ;                           ' 4
0666   09A1                         checkChannelEnd 3           ;                       ' 180   | 223
0666   09A1 2A 22 01    >            LD      HL, (IWAVLEN+(ch*4))    ; get sample lenght ' 16
0666   09A4 7C          >            LD      A, H                    ;                   ' 4
0666   09A5 B5          >            OR      L                       ;                   ' 4
0666   09A6 CA B6 09    >            JP      Z, .done                ; sample done ?     ' 10    (34)
0666   09A9 3E 07       >            LD      A, w            ; 7-2
0666   09AB 3D          >            DEC     A               ; 4
0666   09AC 20 FD       >            JR      NZ, .loop       ; 12
0666   09AE ED 4F       >            LD      R, A
0666   09B0 ED 4F       >            LD      R, A
0666   09B2 00          >            NOP
0666   09B3 C3 EC 09    >            JP      .end                    ;                   ' 10    (180)
0666   09B6 21 03 01    >            LD      HL, STATUS+1            ;                   ' 10
0666   09B9 CB 5E       >            BIT     STATPLAY_SFT+ch, (HL)   ; get status        ' 12
0666   09BB CA D6 09    >            JP      Z, .stop            ;                       ' 10    (66)
0666   09BE 2A 10 01    >            LD      HL, (WAVADR+(ch*4))     ;                   ' 16
0666   09C1 22 20 01    >            LD      (IWAVADR+(ch*4)), HL    ;                   ' 16
0666   09C4 2A 12 01    >            LD      HL, (WAVLEN+(ch*4))     ;                   ' 16
0666   09C7 22 22 01    >            LD      (IWAVLEN+(ch*4)), HL    ;                   ' 16
0666   09CA ED 4F       >            LD      R, A
0666   09CC ED 4F       >            LD      R, A
0666   09CE ED 4F       >            LD      R, A
0666   09D0 ED 4F       >            LD      R, A
0666   09D2 00          >            NOP
0666   09D3 C3 EC 09    >            JP      .end                ;                       ' 10    (180)
0666   09D6 2A 28 01    >            LD      HL, (NULLWAVADR)        ;                   ' 16
0666   09D9 22 20 01    >            LD      (IWAVADR+(ch*4)), HL    ;                   ' 16
0666   09DC 2A 2A 01    >            LD      HL, (NULLWAVLEN)        ;                   ' 16
0666   09DF 22 22 01    >            LD      (IWAVLEN+(ch*4)), HL    ;                   ' 16
0666   09E2 21 02 01    >            LD      HL, STATUS              ;                   ' 10
0666   09E5 CB 9E       >            RES     STATPLAY_SFT+ch, (HL)   ; clear status      ' 15
0666   09E7 21 03 01    >            LD      HL, STATUS+1            ;                   ' 10
0666   09EA CB 9E       >            RES     STATPLAY_SFT+ch, (HL)   ; clear status      ' 15
0667   09EC                         wait13                      ;                       ' 13    |
0667   09EC ED 4F       >            LD      R, A
0667   09EE 00          >            NOP
0668   09EF             
0669   09EF             ; free time here
0670   09EF             ; --------------
0671   09EF             
0672   09EF             ; $F7
0673   09EF                         sampleOutput                ;                       ' 30    |
0673   09EF D9          >            EXX                     ;                           ' 4
0673   09F0 0A          >            LD      A, (BC)         ; read sample from buffer   ' 7
0673   09F1 82          >            ADD     D               ; unsign                    ' 4
0673   09F2 0C          >            INC     C               ; increment with looping    ' 4
0673   09F3 77          >            LD      (HL), A         ; play sample               ' 7
0673   09F4 D9          >            EXX                     ;                           ' 4
0674   09F5 DD 2E 07                LD      IXL, 7              ; prepare loop          ' 11    |
0675   09F8                         wait182                     ;                       ' 182   |
0675   09F8 3E 0B       >            LD      A, w            ; 7-2
0675   09FA 3D          >            DEC     A               ; 4
0675   09FB 20 FD       >            JR      NZ, .loop       ; 12
0675   09FD 00          >            NOP
0676   09FE             
0677   09FE             ; $F8-FE
0678   09FE             loop_freetime
0679   09FE                         sampleOutput                ;                       ' 30    |
0679   09FE D9          >            EXX                     ;                           ' 4
0679   09FF 0A          >            LD      A, (BC)         ; read sample from buffer   ' 7
0679   0A00 82          >            ADD     D               ; unsign                    ' 4
0679   0A01 0C          >            INC     C               ; increment with looping    ' 4
0679   0A02 77          >            LD      (HL), A         ; play sample               ' 7
0679   0A03 D9          >            EXX                     ;                           ' 4
0680   0A04                         wait175                     ;                       ' 175   | 223
0680   0A04 3E 0A       >            LD      A, w            ; 7-2
0680   0A06 3D          >            DEC     A               ; 4
0680   0A07 20 FD       >            JR      NZ, .loop       ; 12
0680   0A09 ED 4F       >            LD      R, A
0680   0A0B 00          >            NOP
0681   0A0C DD 2D                   DEC     IXL                 ;                       ' 8     |
0682   0A0E C2 FE 09                JP      NZ, loop_freetime   ;                       ' 10    |
0683   0A11             
0684   0A11             ; $FF
0685   0A11                         sampleOutput                ;                       ' 30    |
0685   0A11 D9          >            EXX                     ;                           ' 4
0685   0A12 0A          >            LD      A, (BC)         ; read sample from buffer   ' 7
0685   0A13 82          >            ADD     D               ; unsign                    ' 4
0685   0A14 0C          >            INC     C               ; increment with looping    ' 4
0685   0A15 77          >            LD      (HL), A         ; play sample               ' 7
0685   0A16 D9          >            EXX                     ;                           ' 4
0686   0A17                         swapBuffer                  ; swap buffers          ' 72    |
0686   0A17 2A 2C 01    >            LD      HL, (WRITEBUF)      ;                       ' 16
0686   0A1A ED 5B 2E 01 >            LD      DE, (READBUF)       ;                       ' 20
0686   0A1E ED 53 2C 01 >            LD      (WRITEBUF), DE      ;                       ' 20
0686   0A22 22 2E 01    >            LD      (READBUF), HL       ;                       ' 16
0687   0A25 D9                      EXX                         ;                       ' 4     |
0688   0A26 ED 4B 2E 01             LD      BC, (READBUF)       ; read buffer           ' 20    | 223
0689   0A2A D9                      EXX                         ;                       ' 4     |
0690   0A2B                         wait83                      ;                       ' 83    |
0690   0A2B 3E 04       >            LD      A, w            ; 7-2
0690   0A2D 3D          >            DEC     A               ; 4
0690   0A2E 20 FD       >            JR      NZ, .loop       ; 12
0690   0A30 C3 33 0A    >            JP      .go
0690   0A33 F6 00       >            OR      $0
0691   0A35 C3 A8 02                JP      main_loop           ;                       ' 10    |
0692   0A38             
0693   0A38             
0694   0A38             ; ##############################  functions  ################################
0695   0A38             
0696   0A38                         INCLUDE "z80_fct.i80"   ; basic functions
0001+  0A38             ; ########################### function #############################
0002+  0A38             
0003+  0A38             ; initDAC
0004+  0A38             ; -----------
0005+  0A38             ; HL <-  YMPORT0
0006+  0A38             ; DE <-  $2A80
0007+  0A38             ;
0008+  0A38             ; prepare DAC for output
0009+  0A38             
0010+  0A38             initDAC
0011+  0A38 11 80 2B                LD      DE, $2B80
0012+  0A3B CD 45 0A                CALL    writeYM0        ; enable DAC
0013+  0A3E 11 80 2A                LD      DE, $2A80
0014+  0A41 CD 45 0A                CALL    writeYM0        ; DAC data to silent
0015+  0A44 C9                      RET
0016+  0A45             
0017+  0A45             ; writeYM0 / writeYM1
0018+  0A45             ; -------------------
0019+  0A45             ; D   -> address
0020+  0A45             ; E   -> value
0021+  0A45             ; HL <-  YMPORT0 / YMPORT2
0022+  0A45             ;
0023+  0A45             ; write to YM2612 (safe)
0024+  0A45             ; 81 cycles
0025+  0A45             
0026+  0A45             writeYM0                            ;                           ' 17
0027+  0A45 21 00 40                LD      HL, YMPORT0     ; HL = YM port 0            ' 10    | (27)
0028+  0A48             
0029+  0A48             .wait
0030+  0A48 CB 7E                   BIT     7, (HL)         ; test YM not busy          ' 12    |
0031+  0A4A 20 FC                   JR      NZ, .wait       ;                           ' 7     | 19 (46)
0032+  0A4C             
0033+  0A4C 2E 00                   LD      L, $0           ; HL = YM port 0            ' 7     |
0034+  0A4E 72                      LD      (HL), D         ; write address             ' 7     |
0035+  0A4F 2C                      INC     L               ; next port                 ' 4     | 25 (71)
0036+  0A50 73                      LD      (HL), E         ; write value               ' 7     |
0037+  0A51             
0038+  0A51 C9                      RET                     ; end                       ' 10    | (81)
0039+  0A52             
0040+  0A52             
0041+  0A52             writeYM1                            ;                           ' 17
0042+  0A52 21 00 40                LD      HL, YMPORT0     ; HL = YM port 0            ' 10    | (27)
0043+  0A55             
0044+  0A55             .wait
0045+  0A55 CB 7E                   BIT     7, (HL)         ; test YM not busy          ' 12    |
0046+  0A57 20 FC                   JR      NZ, .wait       ;                           ' 7     | 19 (46)
0047+  0A59             
0048+  0A59 2E 02                   LD      L, $2           ; HL = YM port 2            ' 7     |
0049+  0A5B 72                      LD      (HL), D         ; write address             ' 7     | 25 (71)
0050+  0A5C 2C                      INC     L               ; HL = YM port 3            ' 4     |
0051+  0A5D 73                      LD      (HL), E         ; write value               ' 7     |
0052+  0A5E             
0053+  0A5E C9                      RET                     ; end                       ' 10    | (81)
0054+  0A5F             
0055+  0A5F             
0056+  0A5F             ; writeYM0Fast / writeYM1Fast
0057+  0A5F             ; ---------------------------
0058+  0A5F             ; D   -> address
0059+  0A5F             ; E   -> value
0060+  0A5F             ; HL <-  YMPORT0 / YMPORT2
0061+  0A5F             ;
0062+  0A5F             ; write to YM2612
0063+  0A5F             ; 55 cycles
0064+  0A5F             
0065+  0A5F             writeYM0Fast                        ;                           ' 17
0066+  0A5F             
0067+  0A5F 21 00 40                LD      HL, YMPORT0     ; HL = YM port 0            ' 10    |
0068+  0A62 72                      LD      (HL), D         ; write address             ' 7     |
0069+  0A63 2C                      INC     L               ; next port                 ' 4     | 28 (45)
0070+  0A64 73                      LD      (HL), E         ; write value               ' 7     |
0071+  0A65             
0072+  0A65 C9                      RET                     ; end                       ' 10    | (55)
0073+  0A66             
0074+  0A66             
0075+  0A66             writeYM1Fast                        ;                           ' 17
0076+  0A66             
0077+  0A66 21 02 40                LD      HL, YMPORT2     ; HL = YM port 2            ' 10    |
0078+  0A69 72                      LD      (HL), D         ; write address             ' 7     |
0079+  0A6A 2C                      INC     L               ; next port                 ' 4     | 28 (45)
0080+  0A6B 73                      LD      (HL), E         ; write value               ' 7     |
0081+  0A6C             
0082+  0A6C C9                      RET                     ; end                       ' 10    | (55)
0083+  0A6D             
0697   0A6D             
0698   0A6D             
0699   0A6D                         END
